Archive member included to satisfy reference by file (symbol)

/home/neuberfran/neuber/gcc-arm-none-eabi-10.3-2021.10/bin/../lib/gcc/arm-none-eabi/10.3.1/../../../../arm-none-eabi/lib/thumb/v7e-m+fp/hard/libc_nano.a(lib_a-assert.o)
                              CMakeFiles/rpmsg_str_echo_freertos_example.dir/home/neuberfran/projects/freertos-tn/examples/imx7d_pico_m4/demo_apps/rpmsg/str_echo_freertos/str_echo_freertos.c.obj (__assert_func)
/home/neuberfran/neuber/gcc-arm-none-eabi-10.3-2021.10/bin/../lib/gcc/arm-none-eabi/10.3.1/../../../../arm-none-eabi/lib/thumb/v7e-m+fp/hard/libc_nano.a(lib_a-exit.o)
                              /home/neuberfran/neuber/gcc-arm-none-eabi-10.3-2021.10/bin/../lib/gcc/arm-none-eabi/10.3.1/../../../../arm-none-eabi/lib/thumb/v7e-m+fp/hard/crt0.o (exit)
/home/neuberfran/neuber/gcc-arm-none-eabi-10.3-2021.10/bin/../lib/gcc/arm-none-eabi/10.3.1/../../../../arm-none-eabi/lib/thumb/v7e-m+fp/hard/libc_nano.a(lib_a-fprintf.o)
                              /home/neuberfran/neuber/gcc-arm-none-eabi-10.3-2021.10/bin/../lib/gcc/arm-none-eabi/10.3.1/../../../../arm-none-eabi/lib/thumb/v7e-m+fp/hard/libc_nano.a(lib_a-assert.o) (fiprintf)
/home/neuberfran/neuber/gcc-arm-none-eabi-10.3-2021.10/bin/../lib/gcc/arm-none-eabi/10.3.1/../../../../arm-none-eabi/lib/thumb/v7e-m+fp/hard/libc_nano.a(lib_a-impure.o)
                              /home/neuberfran/neuber/gcc-arm-none-eabi-10.3-2021.10/bin/../lib/gcc/arm-none-eabi/10.3.1/../../../../arm-none-eabi/lib/thumb/v7e-m+fp/hard/libc_nano.a(lib_a-exit.o) (_global_impure_ptr)
/home/neuberfran/neuber/gcc-arm-none-eabi-10.3-2021.10/bin/../lib/gcc/arm-none-eabi/10.3.1/../../../../arm-none-eabi/lib/thumb/v7e-m+fp/hard/libc_nano.a(lib_a-init.o)
                              /home/neuberfran/neuber/gcc-arm-none-eabi-10.3-2021.10/bin/../lib/gcc/arm-none-eabi/10.3.1/../../../../arm-none-eabi/lib/thumb/v7e-m+fp/hard/crt0.o (__libc_init_array)
/home/neuberfran/neuber/gcc-arm-none-eabi-10.3-2021.10/bin/../lib/gcc/arm-none-eabi/10.3.1/../../../../arm-none-eabi/lib/thumb/v7e-m+fp/hard/libc_nano.a(lib_a-memcpy-stub.o)
                              CMakeFiles/rpmsg_str_echo_freertos_example.dir/home/neuberfran/projects/freertos-tn/examples/imx7d_pico_m4/demo_apps/rpmsg/str_echo_freertos/str_echo_freertos.c.obj (memcpy)
/home/neuberfran/neuber/gcc-arm-none-eabi-10.3-2021.10/bin/../lib/gcc/arm-none-eabi/10.3.1/../../../../arm-none-eabi/lib/thumb/v7e-m+fp/hard/libc_nano.a(lib_a-memset.o)
                              /home/neuberfran/neuber/gcc-arm-none-eabi-10.3-2021.10/bin/../lib/gcc/arm-none-eabi/10.3.1/../../../../arm-none-eabi/lib/thumb/v7e-m+fp/hard/crt0.o (memset)
/home/neuberfran/neuber/gcc-arm-none-eabi-10.3-2021.10/bin/../lib/gcc/arm-none-eabi/10.3.1/../../../../arm-none-eabi/lib/thumb/v7e-m+fp/hard/libc_nano.a(lib_a-nano-vfprintf.o)
                              /home/neuberfran/neuber/gcc-arm-none-eabi-10.3-2021.10/bin/../lib/gcc/arm-none-eabi/10.3.1/../../../../arm-none-eabi/lib/thumb/v7e-m+fp/hard/libc_nano.a(lib_a-fprintf.o) (_vfprintf_r)
/home/neuberfran/neuber/gcc-arm-none-eabi-10.3-2021.10/bin/../lib/gcc/arm-none-eabi/10.3.1/../../../../arm-none-eabi/lib/thumb/v7e-m+fp/hard/libc_nano.a(lib_a-nano-vfprintf_i.o)
                              /home/neuberfran/neuber/gcc-arm-none-eabi-10.3-2021.10/bin/../lib/gcc/arm-none-eabi/10.3.1/../../../../arm-none-eabi/lib/thumb/v7e-m+fp/hard/libc_nano.a(lib_a-nano-vfprintf.o) (_printf_i)
/home/neuberfran/neuber/gcc-arm-none-eabi-10.3-2021.10/bin/../lib/gcc/arm-none-eabi/10.3.1/../../../../arm-none-eabi/lib/thumb/v7e-m+fp/hard/libc_nano.a(lib_a-strcmp.o)
                              CMakeFiles/rpmsg_str_echo_freertos_example.dir/home/neuberfran/projects/freertos-tn/middleware/multicore/open-amp/porting/env/freertos/rpmsg_porting.c.obj (strcmp)
/home/neuberfran/neuber/gcc-arm-none-eabi-10.3-2021.10/bin/../lib/gcc/arm-none-eabi/10.3.1/../../../../arm-none-eabi/lib/thumb/v7e-m+fp/hard/libc_nano.a(lib_a-strlen.o)
                              CMakeFiles/rpmsg_str_echo_freertos_example.dir/home/neuberfran/projects/freertos-tn/platform/utilities/src/print_scan.c.obj (strlen)
/home/neuberfran/neuber/gcc-arm-none-eabi-10.3-2021.10/bin/../lib/gcc/arm-none-eabi/10.3.1/../../../../arm-none-eabi/lib/thumb/v7e-m+fp/hard/libc_nano.a(lib_a-strncmp.o)
                              CMakeFiles/rpmsg_str_echo_freertos_example.dir/home/neuberfran/projects/freertos-tn/middleware/multicore/open-amp/porting/env/freertos/rpmsg_porting.c.obj (strncmp)
/home/neuberfran/neuber/gcc-arm-none-eabi-10.3-2021.10/bin/../lib/gcc/arm-none-eabi/10.3.1/../../../../arm-none-eabi/lib/thumb/v7e-m+fp/hard/libc_nano.a(lib_a-strncpy.o)
                              CMakeFiles/rpmsg_str_echo_freertos_example.dir/home/neuberfran/projects/freertos-tn/middleware/multicore/open-amp/porting/env/freertos/rpmsg_porting.c.obj (strncpy)
/home/neuberfran/neuber/gcc-arm-none-eabi-10.3-2021.10/bin/../lib/gcc/arm-none-eabi/10.3.1/../../../../arm-none-eabi/lib/thumb/v7e-m+fp/hard/libc_nano.a(lib_a-wbuf.o)
                              /home/neuberfran/neuber/gcc-arm-none-eabi-10.3-2021.10/bin/../lib/gcc/arm-none-eabi/10.3.1/../../../../arm-none-eabi/lib/thumb/v7e-m+fp/hard/libc_nano.a(lib_a-nano-vfprintf.o) (__swbuf_r)
/home/neuberfran/neuber/gcc-arm-none-eabi-10.3-2021.10/bin/../lib/gcc/arm-none-eabi/10.3.1/../../../../arm-none-eabi/lib/thumb/v7e-m+fp/hard/libc_nano.a(lib_a-wsetup.o)
                              /home/neuberfran/neuber/gcc-arm-none-eabi-10.3-2021.10/bin/../lib/gcc/arm-none-eabi/10.3.1/../../../../arm-none-eabi/lib/thumb/v7e-m+fp/hard/libc_nano.a(lib_a-nano-vfprintf.o) (__swsetup_r)
/home/neuberfran/neuber/gcc-arm-none-eabi-10.3-2021.10/bin/../lib/gcc/arm-none-eabi/10.3.1/../../../../arm-none-eabi/lib/thumb/v7e-m+fp/hard/libc_nano.a(lib_a-abort.o)
                              /home/neuberfran/neuber/gcc-arm-none-eabi-10.3-2021.10/bin/../lib/gcc/arm-none-eabi/10.3.1/../../../../arm-none-eabi/lib/thumb/v7e-m+fp/hard/libc_nano.a(lib_a-assert.o) (abort)
/home/neuberfran/neuber/gcc-arm-none-eabi-10.3-2021.10/bin/../lib/gcc/arm-none-eabi/10.3.1/../../../../arm-none-eabi/lib/thumb/v7e-m+fp/hard/libc_nano.a(lib_a-fflush.o)
                              /home/neuberfran/neuber/gcc-arm-none-eabi-10.3-2021.10/bin/../lib/gcc/arm-none-eabi/10.3.1/../../../../arm-none-eabi/lib/thumb/v7e-m+fp/hard/libc_nano.a(lib_a-wbuf.o) (_fflush_r)
/home/neuberfran/neuber/gcc-arm-none-eabi-10.3-2021.10/bin/../lib/gcc/arm-none-eabi/10.3.1/../../../../arm-none-eabi/lib/thumb/v7e-m+fp/hard/libc_nano.a(lib_a-findfp.o)
                              /home/neuberfran/neuber/gcc-arm-none-eabi-10.3-2021.10/bin/../lib/gcc/arm-none-eabi/10.3.1/../../../../arm-none-eabi/lib/thumb/v7e-m+fp/hard/libc_nano.a(lib_a-nano-vfprintf.o) (__sinit)
/home/neuberfran/neuber/gcc-arm-none-eabi-10.3-2021.10/bin/../lib/gcc/arm-none-eabi/10.3.1/../../../../arm-none-eabi/lib/thumb/v7e-m+fp/hard/libc_nano.a(lib_a-fvwrite.o)
                              /home/neuberfran/neuber/gcc-arm-none-eabi-10.3-2021.10/bin/../lib/gcc/arm-none-eabi/10.3.1/../../../../arm-none-eabi/lib/thumb/v7e-m+fp/hard/libc_nano.a(lib_a-nano-vfprintf.o) (__sfvwrite_r)
/home/neuberfran/neuber/gcc-arm-none-eabi-10.3-2021.10/bin/../lib/gcc/arm-none-eabi/10.3.1/../../../../arm-none-eabi/lib/thumb/v7e-m+fp/hard/libc_nano.a(lib_a-fwalk.o)
                              /home/neuberfran/neuber/gcc-arm-none-eabi-10.3-2021.10/bin/../lib/gcc/arm-none-eabi/10.3.1/../../../../arm-none-eabi/lib/thumb/v7e-m+fp/hard/libc_nano.a(lib_a-findfp.o) (_fwalk)
/home/neuberfran/neuber/gcc-arm-none-eabi-10.3-2021.10/bin/../lib/gcc/arm-none-eabi/10.3.1/../../../../arm-none-eabi/lib/thumb/v7e-m+fp/hard/libc_nano.a(lib_a-lock.o)
                              /home/neuberfran/neuber/gcc-arm-none-eabi-10.3-2021.10/bin/../lib/gcc/arm-none-eabi/10.3.1/../../../../arm-none-eabi/lib/thumb/v7e-m+fp/hard/libc_nano.a(lib_a-findfp.o) (__retarget_lock_init_recursive)
/home/neuberfran/neuber/gcc-arm-none-eabi-10.3-2021.10/bin/../lib/gcc/arm-none-eabi/10.3.1/../../../../arm-none-eabi/lib/thumb/v7e-m+fp/hard/libc_nano.a(lib_a-makebuf.o)
                              /home/neuberfran/neuber/gcc-arm-none-eabi-10.3-2021.10/bin/../lib/gcc/arm-none-eabi/10.3.1/../../../../arm-none-eabi/lib/thumb/v7e-m+fp/hard/libc_nano.a(lib_a-wsetup.o) (__smakebuf_r)
/home/neuberfran/neuber/gcc-arm-none-eabi-10.3-2021.10/bin/../lib/gcc/arm-none-eabi/10.3.1/../../../../arm-none-eabi/lib/thumb/v7e-m+fp/hard/libc_nano.a(lib_a-memchr.o)
                              /home/neuberfran/neuber/gcc-arm-none-eabi-10.3-2021.10/bin/../lib/gcc/arm-none-eabi/10.3.1/../../../../arm-none-eabi/lib/thumb/v7e-m+fp/hard/libc_nano.a(lib_a-nano-vfprintf.o) (memchr)
/home/neuberfran/neuber/gcc-arm-none-eabi-10.3-2021.10/bin/../lib/gcc/arm-none-eabi/10.3.1/../../../../arm-none-eabi/lib/thumb/v7e-m+fp/hard/libc_nano.a(lib_a-memmove.o)
                              /home/neuberfran/neuber/gcc-arm-none-eabi-10.3-2021.10/bin/../lib/gcc/arm-none-eabi/10.3.1/../../../../arm-none-eabi/lib/thumb/v7e-m+fp/hard/libc_nano.a(lib_a-fvwrite.o) (memmove)
/home/neuberfran/neuber/gcc-arm-none-eabi-10.3-2021.10/bin/../lib/gcc/arm-none-eabi/10.3.1/../../../../arm-none-eabi/lib/thumb/v7e-m+fp/hard/libc_nano.a(lib_a-nano-freer.o)
                              /home/neuberfran/neuber/gcc-arm-none-eabi-10.3-2021.10/bin/../lib/gcc/arm-none-eabi/10.3.1/../../../../arm-none-eabi/lib/thumb/v7e-m+fp/hard/libc_nano.a(lib_a-wsetup.o) (_free_r)
/home/neuberfran/neuber/gcc-arm-none-eabi-10.3-2021.10/bin/../lib/gcc/arm-none-eabi/10.3.1/../../../../arm-none-eabi/lib/thumb/v7e-m+fp/hard/libc_nano.a(lib_a-nano-mallocr.o)
                              /home/neuberfran/neuber/gcc-arm-none-eabi-10.3-2021.10/bin/../lib/gcc/arm-none-eabi/10.3.1/../../../../arm-none-eabi/lib/thumb/v7e-m+fp/hard/libc_nano.a(lib_a-findfp.o) (_malloc_r)
/home/neuberfran/neuber/gcc-arm-none-eabi-10.3-2021.10/bin/../lib/gcc/arm-none-eabi/10.3.1/../../../../arm-none-eabi/lib/thumb/v7e-m+fp/hard/libc_nano.a(lib_a-nano-reallocr.o)
                              /home/neuberfran/neuber/gcc-arm-none-eabi-10.3-2021.10/bin/../lib/gcc/arm-none-eabi/10.3.1/../../../../arm-none-eabi/lib/thumb/v7e-m+fp/hard/libc_nano.a(lib_a-fvwrite.o) (_realloc_r)
/home/neuberfran/neuber/gcc-arm-none-eabi-10.3-2021.10/bin/../lib/gcc/arm-none-eabi/10.3.1/../../../../arm-none-eabi/lib/thumb/v7e-m+fp/hard/libc_nano.a(lib_a-sbrkr.o)
                              /home/neuberfran/neuber/gcc-arm-none-eabi-10.3-2021.10/bin/../lib/gcc/arm-none-eabi/10.3.1/../../../../arm-none-eabi/lib/thumb/v7e-m+fp/hard/libc_nano.a(lib_a-nano-mallocr.o) (_sbrk_r)
/home/neuberfran/neuber/gcc-arm-none-eabi-10.3-2021.10/bin/../lib/gcc/arm-none-eabi/10.3.1/../../../../arm-none-eabi/lib/thumb/v7e-m+fp/hard/libc_nano.a(lib_a-signal.o)
                              /home/neuberfran/neuber/gcc-arm-none-eabi-10.3-2021.10/bin/../lib/gcc/arm-none-eabi/10.3.1/../../../../arm-none-eabi/lib/thumb/v7e-m+fp/hard/libc_nano.a(lib_a-abort.o) (raise)
/home/neuberfran/neuber/gcc-arm-none-eabi-10.3-2021.10/bin/../lib/gcc/arm-none-eabi/10.3.1/../../../../arm-none-eabi/lib/thumb/v7e-m+fp/hard/libc_nano.a(lib_a-signalr.o)
                              /home/neuberfran/neuber/gcc-arm-none-eabi-10.3-2021.10/bin/../lib/gcc/arm-none-eabi/10.3.1/../../../../arm-none-eabi/lib/thumb/v7e-m+fp/hard/libc_nano.a(lib_a-signal.o) (_kill_r)
/home/neuberfran/neuber/gcc-arm-none-eabi-10.3-2021.10/bin/../lib/gcc/arm-none-eabi/10.3.1/../../../../arm-none-eabi/lib/thumb/v7e-m+fp/hard/libc_nano.a(lib_a-stdio.o)
                              /home/neuberfran/neuber/gcc-arm-none-eabi-10.3-2021.10/bin/../lib/gcc/arm-none-eabi/10.3.1/../../../../arm-none-eabi/lib/thumb/v7e-m+fp/hard/libc_nano.a(lib_a-findfp.o) (__sread)
/home/neuberfran/neuber/gcc-arm-none-eabi-10.3-2021.10/bin/../lib/gcc/arm-none-eabi/10.3.1/../../../../arm-none-eabi/lib/thumb/v7e-m+fp/hard/libc_nano.a(lib_a-writer.o)
                              /home/neuberfran/neuber/gcc-arm-none-eabi-10.3-2021.10/bin/../lib/gcc/arm-none-eabi/10.3.1/../../../../arm-none-eabi/lib/thumb/v7e-m+fp/hard/libc_nano.a(lib_a-stdio.o) (_write_r)
/home/neuberfran/neuber/gcc-arm-none-eabi-10.3-2021.10/bin/../lib/gcc/arm-none-eabi/10.3.1/../../../../arm-none-eabi/lib/thumb/v7e-m+fp/hard/libc_nano.a(lib_a-closer.o)
                              /home/neuberfran/neuber/gcc-arm-none-eabi-10.3-2021.10/bin/../lib/gcc/arm-none-eabi/10.3.1/../../../../arm-none-eabi/lib/thumb/v7e-m+fp/hard/libc_nano.a(lib_a-stdio.o) (_close_r)
/home/neuberfran/neuber/gcc-arm-none-eabi-10.3-2021.10/bin/../lib/gcc/arm-none-eabi/10.3.1/../../../../arm-none-eabi/lib/thumb/v7e-m+fp/hard/libc_nano.a(lib_a-fstatr.o)
                              /home/neuberfran/neuber/gcc-arm-none-eabi-10.3-2021.10/bin/../lib/gcc/arm-none-eabi/10.3.1/../../../../arm-none-eabi/lib/thumb/v7e-m+fp/hard/libc_nano.a(lib_a-makebuf.o) (_fstat_r)
/home/neuberfran/neuber/gcc-arm-none-eabi-10.3-2021.10/bin/../lib/gcc/arm-none-eabi/10.3.1/../../../../arm-none-eabi/lib/thumb/v7e-m+fp/hard/libc_nano.a(lib_a-isattyr.o)
                              /home/neuberfran/neuber/gcc-arm-none-eabi-10.3-2021.10/bin/../lib/gcc/arm-none-eabi/10.3.1/../../../../arm-none-eabi/lib/thumb/v7e-m+fp/hard/libc_nano.a(lib_a-makebuf.o) (_isatty_r)
/home/neuberfran/neuber/gcc-arm-none-eabi-10.3-2021.10/bin/../lib/gcc/arm-none-eabi/10.3.1/../../../../arm-none-eabi/lib/thumb/v7e-m+fp/hard/libc_nano.a(lib_a-lseekr.o)
                              /home/neuberfran/neuber/gcc-arm-none-eabi-10.3-2021.10/bin/../lib/gcc/arm-none-eabi/10.3.1/../../../../arm-none-eabi/lib/thumb/v7e-m+fp/hard/libc_nano.a(lib_a-stdio.o) (_lseek_r)
/home/neuberfran/neuber/gcc-arm-none-eabi-10.3-2021.10/bin/../lib/gcc/arm-none-eabi/10.3.1/../../../../arm-none-eabi/lib/thumb/v7e-m+fp/hard/libc_nano.a(lib_a-mlock.o)
                              /home/neuberfran/neuber/gcc-arm-none-eabi-10.3-2021.10/bin/../lib/gcc/arm-none-eabi/10.3.1/../../../../arm-none-eabi/lib/thumb/v7e-m+fp/hard/libc_nano.a(lib_a-nano-freer.o) (__malloc_lock)
/home/neuberfran/neuber/gcc-arm-none-eabi-10.3-2021.10/bin/../lib/gcc/arm-none-eabi/10.3.1/../../../../arm-none-eabi/lib/thumb/v7e-m+fp/hard/libc_nano.a(lib_a-nano-msizer.o)
                              /home/neuberfran/neuber/gcc-arm-none-eabi-10.3-2021.10/bin/../lib/gcc/arm-none-eabi/10.3.1/../../../../arm-none-eabi/lib/thumb/v7e-m+fp/hard/libc_nano.a(lib_a-nano-reallocr.o) (_malloc_usable_size_r)
/home/neuberfran/neuber/gcc-arm-none-eabi-10.3-2021.10/bin/../lib/gcc/arm-none-eabi/10.3.1/../../../../arm-none-eabi/lib/thumb/v7e-m+fp/hard/libc_nano.a(lib_a-readr.o)
                              /home/neuberfran/neuber/gcc-arm-none-eabi-10.3-2021.10/bin/../lib/gcc/arm-none-eabi/10.3.1/../../../../arm-none-eabi/lib/thumb/v7e-m+fp/hard/libc_nano.a(lib_a-stdio.o) (_read_r)
/home/neuberfran/neuber/gcc-arm-none-eabi-10.3-2021.10/bin/../lib/gcc/arm-none-eabi/10.3.1/../../../../arm-none-eabi/lib/thumb/v7e-m+fp/hard/libc_nano.a(lib_a-reent.o)
                              /home/neuberfran/neuber/gcc-arm-none-eabi-10.3-2021.10/bin/../lib/gcc/arm-none-eabi/10.3.1/../../../../arm-none-eabi/lib/thumb/v7e-m+fp/hard/libc_nano.a(lib_a-sbrkr.o) (errno)
/home/neuberfran/neuber/gcc-arm-none-eabi-10.3-2021.10/bin/../lib/gcc/arm-none-eabi/10.3.1/../../../../arm-none-eabi/lib/thumb/v7e-m+fp/hard/libnosys.a(close.o)
                              /home/neuberfran/neuber/gcc-arm-none-eabi-10.3-2021.10/bin/../lib/gcc/arm-none-eabi/10.3.1/../../../../arm-none-eabi/lib/thumb/v7e-m+fp/hard/libc_nano.a(lib_a-closer.o) (_close)
/home/neuberfran/neuber/gcc-arm-none-eabi-10.3-2021.10/bin/../lib/gcc/arm-none-eabi/10.3.1/../../../../arm-none-eabi/lib/thumb/v7e-m+fp/hard/libnosys.a(fstat.o)
                              /home/neuberfran/neuber/gcc-arm-none-eabi-10.3-2021.10/bin/../lib/gcc/arm-none-eabi/10.3.1/../../../../arm-none-eabi/lib/thumb/v7e-m+fp/hard/libc_nano.a(lib_a-fstatr.o) (_fstat)
/home/neuberfran/neuber/gcc-arm-none-eabi-10.3-2021.10/bin/../lib/gcc/arm-none-eabi/10.3.1/../../../../arm-none-eabi/lib/thumb/v7e-m+fp/hard/libnosys.a(getpid.o)
                              /home/neuberfran/neuber/gcc-arm-none-eabi-10.3-2021.10/bin/../lib/gcc/arm-none-eabi/10.3.1/../../../../arm-none-eabi/lib/thumb/v7e-m+fp/hard/libc_nano.a(lib_a-signalr.o) (_getpid)
/home/neuberfran/neuber/gcc-arm-none-eabi-10.3-2021.10/bin/../lib/gcc/arm-none-eabi/10.3.1/../../../../arm-none-eabi/lib/thumb/v7e-m+fp/hard/libnosys.a(isatty.o)
                              /home/neuberfran/neuber/gcc-arm-none-eabi-10.3-2021.10/bin/../lib/gcc/arm-none-eabi/10.3.1/../../../../arm-none-eabi/lib/thumb/v7e-m+fp/hard/libc_nano.a(lib_a-isattyr.o) (_isatty)
/home/neuberfran/neuber/gcc-arm-none-eabi-10.3-2021.10/bin/../lib/gcc/arm-none-eabi/10.3.1/../../../../arm-none-eabi/lib/thumb/v7e-m+fp/hard/libnosys.a(kill.o)
                              /home/neuberfran/neuber/gcc-arm-none-eabi-10.3-2021.10/bin/../lib/gcc/arm-none-eabi/10.3.1/../../../../arm-none-eabi/lib/thumb/v7e-m+fp/hard/libc_nano.a(lib_a-signalr.o) (_kill)
/home/neuberfran/neuber/gcc-arm-none-eabi-10.3-2021.10/bin/../lib/gcc/arm-none-eabi/10.3.1/../../../../arm-none-eabi/lib/thumb/v7e-m+fp/hard/libnosys.a(lseek.o)
                              /home/neuberfran/neuber/gcc-arm-none-eabi-10.3-2021.10/bin/../lib/gcc/arm-none-eabi/10.3.1/../../../../arm-none-eabi/lib/thumb/v7e-m+fp/hard/libc_nano.a(lib_a-lseekr.o) (_lseek)
/home/neuberfran/neuber/gcc-arm-none-eabi-10.3-2021.10/bin/../lib/gcc/arm-none-eabi/10.3.1/../../../../arm-none-eabi/lib/thumb/v7e-m+fp/hard/libnosys.a(sbrk.o)
                              /home/neuberfran/neuber/gcc-arm-none-eabi-10.3-2021.10/bin/../lib/gcc/arm-none-eabi/10.3.1/../../../../arm-none-eabi/lib/thumb/v7e-m+fp/hard/libc_nano.a(lib_a-sbrkr.o) (_sbrk)
/home/neuberfran/neuber/gcc-arm-none-eabi-10.3-2021.10/bin/../lib/gcc/arm-none-eabi/10.3.1/../../../../arm-none-eabi/lib/thumb/v7e-m+fp/hard/libnosys.a(_exit.o)
                              /home/neuberfran/neuber/gcc-arm-none-eabi-10.3-2021.10/bin/../lib/gcc/arm-none-eabi/10.3.1/../../../../arm-none-eabi/lib/thumb/v7e-m+fp/hard/libc_nano.a(lib_a-exit.o) (_exit)

Discarded input sections

 .text          0x0000000000000000        0x0 /home/neuberfran/neuber/gcc-arm-none-eabi-10.3-2021.10/bin/../lib/gcc/arm-none-eabi/10.3.1/thumb/v7e-m+fp/hard/crti.o
 .data          0x0000000000000000        0x0 /home/neuberfran/neuber/gcc-arm-none-eabi-10.3-2021.10/bin/../lib/gcc/arm-none-eabi/10.3.1/thumb/v7e-m+fp/hard/crti.o
 .bss           0x0000000000000000        0x0 /home/neuberfran/neuber/gcc-arm-none-eabi-10.3-2021.10/bin/../lib/gcc/arm-none-eabi/10.3.1/thumb/v7e-m+fp/hard/crti.o
 .data          0x0000000000000000        0x4 /home/neuberfran/neuber/gcc-arm-none-eabi-10.3-2021.10/bin/../lib/gcc/arm-none-eabi/10.3.1/thumb/v7e-m+fp/hard/crtbegin.o
 .rodata        0x0000000000000000       0x24 /home/neuberfran/neuber/gcc-arm-none-eabi-10.3-2021.10/bin/../lib/gcc/arm-none-eabi/10.3.1/thumb/v7e-m+fp/hard/crtbegin.o
 .data          0x0000000000000000        0x0 /home/neuberfran/neuber/gcc-arm-none-eabi-10.3-2021.10/bin/../lib/gcc/arm-none-eabi/10.3.1/../../../../arm-none-eabi/lib/thumb/v7e-m+fp/hard/crt0.o
 .bss           0x0000000000000000        0x0 /home/neuberfran/neuber/gcc-arm-none-eabi-10.3-2021.10/bin/../lib/gcc/arm-none-eabi/10.3.1/../../../../arm-none-eabi/lib/thumb/v7e-m+fp/hard/crt0.o
 .ARM.extab     0x0000000000000000        0x0 /home/neuberfran/neuber/gcc-arm-none-eabi-10.3-2021.10/bin/../lib/gcc/arm-none-eabi/10.3.1/../../../../arm-none-eabi/lib/thumb/v7e-m+fp/hard/crt0.o
 .text          0x0000000000000000        0x0 CMakeFiles/rpmsg_str_echo_freertos_example.dir/home/neuberfran/projects/freertos-tn/rtos/FreeRTOS/Source/portable/GCC/ARM_CM4F/port.c.obj
 .data          0x0000000000000000        0x0 CMakeFiles/rpmsg_str_echo_freertos_example.dir/home/neuberfran/projects/freertos-tn/rtos/FreeRTOS/Source/portable/GCC/ARM_CM4F/port.c.obj
 .bss           0x0000000000000000        0x0 CMakeFiles/rpmsg_str_echo_freertos_example.dir/home/neuberfran/projects/freertos-tn/rtos/FreeRTOS/Source/portable/GCC/ARM_CM4F/port.c.obj
 .rodata.pcInterruptPriorityRegisters
                0x0000000000000000        0x4 CMakeFiles/rpmsg_str_echo_freertos_example.dir/home/neuberfran/projects/freertos-tn/rtos/FreeRTOS/Source/portable/GCC/ARM_CM4F/port.c.obj
 .text.vPortEndScheduler
                0x0000000000000000       0x1c CMakeFiles/rpmsg_str_echo_freertos_example.dir/home/neuberfran/projects/freertos-tn/rtos/FreeRTOS/Source/portable/GCC/ARM_CM4F/port.c.obj
 .data          0x0000000000000000        0x0 CMakeFiles/rpmsg_str_echo_freertos_example.dir/home/neuberfran/projects/freertos-tn/platform/devices/MCIMX7D/startup/gcc/startup_MCIMX7D_M4.S.obj
 .bss           0x0000000000000000        0x0 CMakeFiles/rpmsg_str_echo_freertos_example.dir/home/neuberfran/projects/freertos-tn/platform/devices/MCIMX7D/startup/gcc/startup_MCIMX7D_M4.S.obj
 .text          0x0000000000000000        0x0 CMakeFiles/rpmsg_str_echo_freertos_example.dir/home/neuberfran/projects/freertos-tn/rtos/FreeRTOS/Source/portable/MemMang/heap_2.c.obj
 .data          0x0000000000000000        0x0 CMakeFiles/rpmsg_str_echo_freertos_example.dir/home/neuberfran/projects/freertos-tn/rtos/FreeRTOS/Source/portable/MemMang/heap_2.c.obj
 .bss           0x0000000000000000        0x0 CMakeFiles/rpmsg_str_echo_freertos_example.dir/home/neuberfran/projects/freertos-tn/rtos/FreeRTOS/Source/portable/MemMang/heap_2.c.obj
 .rodata.heapSTRUCT_SIZE
                0x0000000000000000        0x2 CMakeFiles/rpmsg_str_echo_freertos_example.dir/home/neuberfran/projects/freertos-tn/rtos/FreeRTOS/Source/portable/MemMang/heap_2.c.obj
 .text.xPortGetFreeHeapSize
                0x0000000000000000       0x18 CMakeFiles/rpmsg_str_echo_freertos_example.dir/home/neuberfran/projects/freertos-tn/rtos/FreeRTOS/Source/portable/MemMang/heap_2.c.obj
 .text.vPortInitialiseBlocks
                0x0000000000000000        0xe CMakeFiles/rpmsg_str_echo_freertos_example.dir/home/neuberfran/projects/freertos-tn/rtos/FreeRTOS/Source/portable/MemMang/heap_2.c.obj
 .text          0x0000000000000000        0x0 CMakeFiles/rpmsg_str_echo_freertos_example.dir/home/neuberfran/projects/freertos-tn/examples/imx7d_pico_m4/demo_apps/rpmsg/str_echo_freertos/str_echo_freertos.c.obj
 .data          0x0000000000000000        0x0 CMakeFiles/rpmsg_str_echo_freertos_example.dir/home/neuberfran/projects/freertos-tn/examples/imx7d_pico_m4/demo_apps/rpmsg/str_echo_freertos/str_echo_freertos.c.obj
 .bss           0x0000000000000000        0x0 CMakeFiles/rpmsg_str_echo_freertos_example.dir/home/neuberfran/projects/freertos-tn/examples/imx7d_pico_m4/demo_apps/rpmsg/str_echo_freertos/str_echo_freertos.c.obj
 .text          0x0000000000000000        0x0 CMakeFiles/rpmsg_str_echo_freertos_example.dir/home/neuberfran/projects/freertos-tn/middleware/multicore/open-amp/rpmsg/rpmsg_rtos.c.obj
 .data          0x0000000000000000        0x0 CMakeFiles/rpmsg_str_echo_freertos_example.dir/home/neuberfran/projects/freertos-tn/middleware/multicore/open-amp/rpmsg/rpmsg_rtos.c.obj
 .bss           0x0000000000000000        0x0 CMakeFiles/rpmsg_str_echo_freertos_example.dir/home/neuberfran/projects/freertos-tn/middleware/multicore/open-amp/rpmsg/rpmsg_rtos.c.obj
 .text.rpmsg_rtos_deinit
                0x0000000000000000       0x50 CMakeFiles/rpmsg_str_echo_freertos_example.dir/home/neuberfran/projects/freertos-tn/middleware/multicore/open-amp/rpmsg/rpmsg_rtos.c.obj
 .text.rpmsg_rtos_create_ept
                0x0000000000000000       0x70 CMakeFiles/rpmsg_str_echo_freertos_example.dir/home/neuberfran/projects/freertos-tn/middleware/multicore/open-amp/rpmsg/rpmsg_rtos.c.obj
 .text.rpmsg_rtos_destroy_ept
                0x0000000000000000       0x22 CMakeFiles/rpmsg_str_echo_freertos_example.dir/home/neuberfran/projects/freertos-tn/middleware/multicore/open-amp/rpmsg/rpmsg_rtos.c.obj
 .text.rpmsg_rtos_recv
                0x0000000000000000       0xb8 CMakeFiles/rpmsg_str_echo_freertos_example.dir/home/neuberfran/projects/freertos-tn/middleware/multicore/open-amp/rpmsg/rpmsg_rtos.c.obj
 .text.rpmsg_rtos_send
                0x0000000000000000       0x64 CMakeFiles/rpmsg_str_echo_freertos_example.dir/home/neuberfran/projects/freertos-tn/middleware/multicore/open-amp/rpmsg/rpmsg_rtos.c.obj
 .rodata.__func__.0
                0x0000000000000000       0x12 CMakeFiles/rpmsg_str_echo_freertos_example.dir/home/neuberfran/projects/freertos-tn/middleware/multicore/open-amp/rpmsg/rpmsg_rtos.c.obj
 .text          0x0000000000000000        0x0 CMakeFiles/rpmsg_str_echo_freertos_example.dir/home/neuberfran/projects/freertos-tn/middleware/multicore/open-amp/porting/imx7d_m4/platform.c.obj
 .data          0x0000000000000000        0x0 CMakeFiles/rpmsg_str_echo_freertos_example.dir/home/neuberfran/projects/freertos-tn/middleware/multicore/open-amp/porting/imx7d_m4/platform.c.obj
 .bss           0x0000000000000000        0x0 CMakeFiles/rpmsg_str_echo_freertos_example.dir/home/neuberfran/projects/freertos-tn/middleware/multicore/open-amp/porting/imx7d_m4/platform.c.obj
 .text.platform_time_delay
                0x0000000000000000       0x44 CMakeFiles/rpmsg_str_echo_freertos_example.dir/home/neuberfran/projects/freertos-tn/middleware/multicore/open-amp/porting/imx7d_m4/platform.c.obj
 .text.platform_cache_all_flush_invalidate
                0x0000000000000000        0xe CMakeFiles/rpmsg_str_echo_freertos_example.dir/home/neuberfran/projects/freertos-tn/middleware/multicore/open-amp/porting/imx7d_m4/platform.c.obj
 .text.platform_cache_disable
                0x0000000000000000        0xe CMakeFiles/rpmsg_str_echo_freertos_example.dir/home/neuberfran/projects/freertos-tn/middleware/multicore/open-amp/porting/imx7d_m4/platform.c.obj
 .text          0x0000000000000000        0x0 CMakeFiles/rpmsg_str_echo_freertos_example.dir/home/neuberfran/projects/freertos-tn/middleware/multicore/open-amp/porting/imx7d_m4/platform_info.c.obj
 .data          0x0000000000000000        0x0 CMakeFiles/rpmsg_str_echo_freertos_example.dir/home/neuberfran/projects/freertos-tn/middleware/multicore/open-amp/porting/imx7d_m4/platform_info.c.obj
 .bss           0x0000000000000000        0x0 CMakeFiles/rpmsg_str_echo_freertos_example.dir/home/neuberfran/projects/freertos-tn/middleware/multicore/open-amp/porting/imx7d_m4/platform_info.c.obj
 .text.platform_get_processor_for_fw
                0x0000000000000000       0x16 CMakeFiles/rpmsg_str_echo_freertos_example.dir/home/neuberfran/projects/freertos-tn/middleware/multicore/open-amp/porting/imx7d_m4/platform_info.c.obj
 .text          0x0000000000000000        0x0 CMakeFiles/rpmsg_str_echo_freertos_example.dir/home/neuberfran/projects/freertos-tn/middleware/multicore/open-amp/common/hil/hil.c.obj
 .data          0x0000000000000000        0x0 CMakeFiles/rpmsg_str_echo_freertos_example.dir/home/neuberfran/projects/freertos-tn/middleware/multicore/open-amp/common/hil/hil.c.obj
 .bss           0x0000000000000000        0x0 CMakeFiles/rpmsg_str_echo_freertos_example.dir/home/neuberfran/projects/freertos-tn/middleware/multicore/open-amp/common/hil/hil.c.obj
 .text.hil_get_cpuforfw
                0x0000000000000000       0x18 CMakeFiles/rpmsg_str_echo_freertos_example.dir/home/neuberfran/projects/freertos-tn/middleware/multicore/open-amp/common/hil/hil.c.obj
 .text.hil_delete_proc
                0x0000000000000000       0x54 CMakeFiles/rpmsg_str_echo_freertos_example.dir/home/neuberfran/projects/freertos-tn/middleware/multicore/open-amp/common/hil/hil.c.obj
 .text.hil_get_proc
                0x0000000000000000       0x4c CMakeFiles/rpmsg_str_echo_freertos_example.dir/home/neuberfran/projects/freertos-tn/middleware/multicore/open-amp/common/hil/hil.c.obj
 .text.hil_get_vdev_info
                0x0000000000000000       0x18 CMakeFiles/rpmsg_str_echo_freertos_example.dir/home/neuberfran/projects/freertos-tn/middleware/multicore/open-amp/common/hil/hil.c.obj
 .text.hil_boot_cpu
                0x0000000000000000       0x32 CMakeFiles/rpmsg_str_echo_freertos_example.dir/home/neuberfran/projects/freertos-tn/middleware/multicore/open-amp/common/hil/hil.c.obj
 .text.hil_shutdown_cpu
                0x0000000000000000       0x2c CMakeFiles/rpmsg_str_echo_freertos_example.dir/home/neuberfran/projects/freertos-tn/middleware/multicore/open-amp/common/hil/hil.c.obj
 .text.hil_get_firmware
                0x0000000000000000       0x20 CMakeFiles/rpmsg_str_echo_freertos_example.dir/home/neuberfran/projects/freertos-tn/middleware/multicore/open-amp/common/hil/hil.c.obj
 .text          0x0000000000000000        0x0 CMakeFiles/rpmsg_str_echo_freertos_example.dir/home/neuberfran/projects/freertos-tn/middleware/multicore/open-amp/common/llist/llist.c.obj
 .data          0x0000000000000000        0x0 CMakeFiles/rpmsg_str_echo_freertos_example.dir/home/neuberfran/projects/freertos-tn/middleware/multicore/open-amp/common/llist/llist.c.obj
 .bss           0x0000000000000000        0x0 CMakeFiles/rpmsg_str_echo_freertos_example.dir/home/neuberfran/projects/freertos-tn/middleware/multicore/open-amp/common/llist/llist.c.obj
 .text          0x0000000000000000        0x0 CMakeFiles/rpmsg_str_echo_freertos_example.dir/home/neuberfran/projects/freertos-tn/middleware/multicore/open-amp/common/shm/sh_mem.c.obj
 .data          0x0000000000000000        0x0 CMakeFiles/rpmsg_str_echo_freertos_example.dir/home/neuberfran/projects/freertos-tn/middleware/multicore/open-amp/common/shm/sh_mem.c.obj
 .bss           0x0000000000000000        0x0 CMakeFiles/rpmsg_str_echo_freertos_example.dir/home/neuberfran/projects/freertos-tn/middleware/multicore/open-amp/common/shm/sh_mem.c.obj
 .text          0x0000000000000000        0x0 CMakeFiles/rpmsg_str_echo_freertos_example.dir/home/neuberfran/projects/freertos-tn/middleware/multicore/open-amp/porting/config/config.c.obj
 .data          0x0000000000000000        0x0 CMakeFiles/rpmsg_str_echo_freertos_example.dir/home/neuberfran/projects/freertos-tn/middleware/multicore/open-amp/porting/config/config.c.obj
 .bss           0x0000000000000000        0x0 CMakeFiles/rpmsg_str_echo_freertos_example.dir/home/neuberfran/projects/freertos-tn/middleware/multicore/open-amp/porting/config/config.c.obj
 .text.config_get_firmware
                0x0000000000000000       0x1c CMakeFiles/rpmsg_str_echo_freertos_example.dir/home/neuberfran/projects/freertos-tn/middleware/multicore/open-amp/porting/config/config.c.obj
 .debug_info    0x0000000000000000       0xc7 CMakeFiles/rpmsg_str_echo_freertos_example.dir/home/neuberfran/projects/freertos-tn/middleware/multicore/open-amp/porting/config/config.c.obj
 .debug_abbrev  0x0000000000000000       0x62 CMakeFiles/rpmsg_str_echo_freertos_example.dir/home/neuberfran/projects/freertos-tn/middleware/multicore/open-amp/porting/config/config.c.obj
 .debug_aranges
                0x0000000000000000       0x20 CMakeFiles/rpmsg_str_echo_freertos_example.dir/home/neuberfran/projects/freertos-tn/middleware/multicore/open-amp/porting/config/config.c.obj
 .debug_ranges  0x0000000000000000       0x10 CMakeFiles/rpmsg_str_echo_freertos_example.dir/home/neuberfran/projects/freertos-tn/middleware/multicore/open-amp/porting/config/config.c.obj
 .debug_line    0x0000000000000000       0x93 CMakeFiles/rpmsg_str_echo_freertos_example.dir/home/neuberfran/projects/freertos-tn/middleware/multicore/open-amp/porting/config/config.c.obj
 .debug_str     0x0000000000000000      0x26f CMakeFiles/rpmsg_str_echo_freertos_example.dir/home/neuberfran/projects/freertos-tn/middleware/multicore/open-amp/porting/config/config.c.obj
 .comment       0x0000000000000000       0x4a CMakeFiles/rpmsg_str_echo_freertos_example.dir/home/neuberfran/projects/freertos-tn/middleware/multicore/open-amp/porting/config/config.c.obj
 .debug_frame   0x0000000000000000       0x38 CMakeFiles/rpmsg_str_echo_freertos_example.dir/home/neuberfran/projects/freertos-tn/middleware/multicore/open-amp/porting/config/config.c.obj
 .ARM.attributes
                0x0000000000000000       0x34 CMakeFiles/rpmsg_str_echo_freertos_example.dir/home/neuberfran/projects/freertos-tn/middleware/multicore/open-amp/porting/config/config.c.obj
 .text          0x0000000000000000        0x0 CMakeFiles/rpmsg_str_echo_freertos_example.dir/home/neuberfran/projects/freertos-tn/middleware/multicore/open-amp/rpmsg/remote_device.c.obj
 .data          0x0000000000000000        0x0 CMakeFiles/rpmsg_str_echo_freertos_example.dir/home/neuberfran/projects/freertos-tn/middleware/multicore/open-amp/rpmsg/remote_device.c.obj
 .bss           0x0000000000000000        0x0 CMakeFiles/rpmsg_str_echo_freertos_example.dir/home/neuberfran/projects/freertos-tn/middleware/multicore/open-amp/rpmsg/remote_device.c.obj
 .text.rpmsg_rdev_get_chnl_from_addr
                0x0000000000000000       0x64 CMakeFiles/rpmsg_str_echo_freertos_example.dir/home/neuberfran/projects/freertos-tn/middleware/multicore/open-amp/rpmsg/remote_device.c.obj
 .text          0x0000000000000000        0x0 CMakeFiles/rpmsg_str_echo_freertos_example.dir/home/neuberfran/projects/freertos-tn/middleware/multicore/open-amp/rpmsg/rpmsg.c.obj
 .data          0x0000000000000000        0x0 CMakeFiles/rpmsg_str_echo_freertos_example.dir/home/neuberfran/projects/freertos-tn/middleware/multicore/open-amp/rpmsg/rpmsg.c.obj
 .bss           0x0000000000000000        0x0 CMakeFiles/rpmsg_str_echo_freertos_example.dir/home/neuberfran/projects/freertos-tn/middleware/multicore/open-amp/rpmsg/rpmsg.c.obj
 .text.rpmsg_get_buffer_size
                0x0000000000000000       0x74 CMakeFiles/rpmsg_str_echo_freertos_example.dir/home/neuberfran/projects/freertos-tn/middleware/multicore/open-amp/rpmsg/rpmsg.c.obj
 .text.rpmsg_create_channel
                0x0000000000000000       0x8c CMakeFiles/rpmsg_str_echo_freertos_example.dir/home/neuberfran/projects/freertos-tn/middleware/multicore/open-amp/rpmsg/rpmsg.c.obj
 .text.rpmsg_delete_channel
                0x0000000000000000       0x50 CMakeFiles/rpmsg_str_echo_freertos_example.dir/home/neuberfran/projects/freertos-tn/middleware/multicore/open-amp/rpmsg/rpmsg.c.obj
 .text          0x0000000000000000        0x0 CMakeFiles/rpmsg_str_echo_freertos_example.dir/home/neuberfran/projects/freertos-tn/middleware/multicore/open-amp/rpmsg/rpmsg_ext.c.obj
 .data          0x0000000000000000        0x0 CMakeFiles/rpmsg_str_echo_freertos_example.dir/home/neuberfran/projects/freertos-tn/middleware/multicore/open-amp/rpmsg/rpmsg_ext.c.obj
 .bss           0x0000000000000000        0x0 CMakeFiles/rpmsg_str_echo_freertos_example.dir/home/neuberfran/projects/freertos-tn/middleware/multicore/open-amp/rpmsg/rpmsg_ext.c.obj
 .text          0x0000000000000000        0x0 CMakeFiles/rpmsg_str_echo_freertos_example.dir/home/neuberfran/projects/freertos-tn/middleware/multicore/open-amp/rpmsg/rpmsg_core.c.obj
 .data          0x0000000000000000        0x0 CMakeFiles/rpmsg_str_echo_freertos_example.dir/home/neuberfran/projects/freertos-tn/middleware/multicore/open-amp/rpmsg/rpmsg_core.c.obj
 .bss           0x0000000000000000        0x0 CMakeFiles/rpmsg_str_echo_freertos_example.dir/home/neuberfran/projects/freertos-tn/middleware/multicore/open-amp/rpmsg/rpmsg_core.c.obj
 .text          0x0000000000000000        0x0 CMakeFiles/rpmsg_str_echo_freertos_example.dir/home/neuberfran/projects/freertos-tn/middleware/multicore/open-amp/virtio/virtio.c.obj
 .data          0x0000000000000000        0x0 CMakeFiles/rpmsg_str_echo_freertos_example.dir/home/neuberfran/projects/freertos-tn/middleware/multicore/open-amp/virtio/virtio.c.obj
 .bss           0x0000000000000000        0x0 CMakeFiles/rpmsg_str_echo_freertos_example.dir/home/neuberfran/projects/freertos-tn/middleware/multicore/open-amp/virtio/virtio.c.obj
 .rodata        0x0000000000000000       0x83 CMakeFiles/rpmsg_str_echo_freertos_example.dir/home/neuberfran/projects/freertos-tn/middleware/multicore/open-amp/virtio/virtio.c.obj
 .data.virtio_ident_table
                0x0000000000000000       0x48 CMakeFiles/rpmsg_str_echo_freertos_example.dir/home/neuberfran/projects/freertos-tn/middleware/multicore/open-amp/virtio/virtio.c.obj
 .data.virtio_common_feature_desc
                0x0000000000000000       0x28 CMakeFiles/rpmsg_str_echo_freertos_example.dir/home/neuberfran/projects/freertos-tn/middleware/multicore/open-amp/virtio/virtio.c.obj
 .text.virtio_dev_name
                0x0000000000000000       0x40 CMakeFiles/rpmsg_str_echo_freertos_example.dir/home/neuberfran/projects/freertos-tn/middleware/multicore/open-amp/virtio/virtio.c.obj
 .text.virtio_feature_name
                0x0000000000000000       0xa0 CMakeFiles/rpmsg_str_echo_freertos_example.dir/home/neuberfran/projects/freertos-tn/middleware/multicore/open-amp/virtio/virtio.c.obj
 .text.virtio_describe
                0x0000000000000000       0x1e CMakeFiles/rpmsg_str_echo_freertos_example.dir/home/neuberfran/projects/freertos-tn/middleware/multicore/open-amp/virtio/virtio.c.obj
 .debug_info    0x0000000000000000      0x729 CMakeFiles/rpmsg_str_echo_freertos_example.dir/home/neuberfran/projects/freertos-tn/middleware/multicore/open-amp/virtio/virtio.c.obj
 .debug_abbrev  0x0000000000000000      0x14a CMakeFiles/rpmsg_str_echo_freertos_example.dir/home/neuberfran/projects/freertos-tn/middleware/multicore/open-amp/virtio/virtio.c.obj
 .debug_aranges
                0x0000000000000000       0x30 CMakeFiles/rpmsg_str_echo_freertos_example.dir/home/neuberfran/projects/freertos-tn/middleware/multicore/open-amp/virtio/virtio.c.obj
 .debug_ranges  0x0000000000000000       0x20 CMakeFiles/rpmsg_str_echo_freertos_example.dir/home/neuberfran/projects/freertos-tn/middleware/multicore/open-amp/virtio/virtio.c.obj
 .debug_line    0x0000000000000000      0x1db CMakeFiles/rpmsg_str_echo_freertos_example.dir/home/neuberfran/projects/freertos-tn/middleware/multicore/open-amp/virtio/virtio.c.obj
 .debug_str     0x0000000000000000      0x583 CMakeFiles/rpmsg_str_echo_freertos_example.dir/home/neuberfran/projects/freertos-tn/middleware/multicore/open-amp/virtio/virtio.c.obj
 .comment       0x0000000000000000       0x4a CMakeFiles/rpmsg_str_echo_freertos_example.dir/home/neuberfran/projects/freertos-tn/middleware/multicore/open-amp/virtio/virtio.c.obj
 .debug_frame   0x0000000000000000       0x84 CMakeFiles/rpmsg_str_echo_freertos_example.dir/home/neuberfran/projects/freertos-tn/middleware/multicore/open-amp/virtio/virtio.c.obj
 .ARM.attributes
                0x0000000000000000       0x34 CMakeFiles/rpmsg_str_echo_freertos_example.dir/home/neuberfran/projects/freertos-tn/middleware/multicore/open-amp/virtio/virtio.c.obj
 .text          0x0000000000000000        0x0 CMakeFiles/rpmsg_str_echo_freertos_example.dir/home/neuberfran/projects/freertos-tn/middleware/multicore/open-amp/virtio/virtqueue.c.obj
 .data          0x0000000000000000        0x0 CMakeFiles/rpmsg_str_echo_freertos_example.dir/home/neuberfran/projects/freertos-tn/middleware/multicore/open-amp/virtio/virtqueue.c.obj
 .bss           0x0000000000000000        0x0 CMakeFiles/rpmsg_str_echo_freertos_example.dir/home/neuberfran/projects/freertos-tn/middleware/multicore/open-amp/virtio/virtqueue.c.obj
 .text.virtqueue_add_single_buffer
                0x0000000000000000       0xc4 CMakeFiles/rpmsg_str_echo_freertos_example.dir/home/neuberfran/projects/freertos-tn/middleware/multicore/open-amp/virtio/virtqueue.c.obj
 .text.virtqueue_enable_cb
                0x0000000000000000       0x1a CMakeFiles/rpmsg_str_echo_freertos_example.dir/home/neuberfran/projects/freertos-tn/middleware/multicore/open-amp/virtio/virtqueue.c.obj
 .text.virtqueue_dump
                0x0000000000000000       0x16 CMakeFiles/rpmsg_str_echo_freertos_example.dir/home/neuberfran/projects/freertos-tn/middleware/multicore/open-amp/virtio/virtqueue.c.obj
 .text.virtqueue_get_desc_size
                0x0000000000000000       0x6a CMakeFiles/rpmsg_str_echo_freertos_example.dir/home/neuberfran/projects/freertos-tn/middleware/multicore/open-amp/virtio/virtqueue.c.obj
 .text.vq_ring_enable_interrupt
                0x0000000000000000       0x68 CMakeFiles/rpmsg_str_echo_freertos_example.dir/home/neuberfran/projects/freertos-tn/middleware/multicore/open-amp/virtio/virtqueue.c.obj
 .text.virtqueue_nused
                0x0000000000000000       0x2a CMakeFiles/rpmsg_str_echo_freertos_example.dir/home/neuberfran/projects/freertos-tn/middleware/multicore/open-amp/virtio/virtqueue.c.obj
 .text          0x0000000000000000        0x0 CMakeFiles/rpmsg_str_echo_freertos_example.dir/home/neuberfran/projects/freertos-tn/middleware/multicore/open-amp/porting/env/freertos/rpmsg_porting.c.obj
 .data          0x0000000000000000        0x0 CMakeFiles/rpmsg_str_echo_freertos_example.dir/home/neuberfran/projects/freertos-tn/middleware/multicore/open-amp/porting/env/freertos/rpmsg_porting.c.obj
 .bss           0x0000000000000000        0x0 CMakeFiles/rpmsg_str_echo_freertos_example.dir/home/neuberfran/projects/freertos-tn/middleware/multicore/open-amp/porting/env/freertos/rpmsg_porting.c.obj
 .text.env_strcmp
                0x0000000000000000       0x1c CMakeFiles/rpmsg_str_echo_freertos_example.dir/home/neuberfran/projects/freertos-tn/middleware/multicore/open-amp/porting/env/freertos/rpmsg_porting.c.obj
 .text.env_disable_interrupts
                0x0000000000000000        0xc CMakeFiles/rpmsg_str_echo_freertos_example.dir/home/neuberfran/projects/freertos-tn/middleware/multicore/open-amp/porting/env/freertos/rpmsg_porting.c.obj
 .text.env_restore_interrupts
                0x0000000000000000        0xc CMakeFiles/rpmsg_str_echo_freertos_example.dir/home/neuberfran/projects/freertos-tn/middleware/multicore/open-amp/porting/env/freertos/rpmsg_porting.c.obj
 .text.env_update_isr
                0x0000000000000000       0x68 CMakeFiles/rpmsg_str_echo_freertos_example.dir/home/neuberfran/projects/freertos-tn/middleware/multicore/open-amp/porting/env/freertos/rpmsg_porting.c.obj
 .text.env_disable_cache
                0x0000000000000000       0x10 CMakeFiles/rpmsg_str_echo_freertos_example.dir/home/neuberfran/projects/freertos-tn/middleware/multicore/open-amp/porting/env/freertos/rpmsg_porting.c.obj
 .text.env_get_timestamp
                0x0000000000000000       0x32 CMakeFiles/rpmsg_str_echo_freertos_example.dir/home/neuberfran/projects/freertos-tn/middleware/multicore/open-amp/porting/env/freertos/rpmsg_porting.c.obj
 .text.env_delete_queue
                0x0000000000000000       0x16 CMakeFiles/rpmsg_str_echo_freertos_example.dir/home/neuberfran/projects/freertos-tn/middleware/multicore/open-amp/porting/env/freertos/rpmsg_porting.c.obj
 .rodata.__func__.2
                0x0000000000000000        0xf CMakeFiles/rpmsg_str_echo_freertos_example.dir/home/neuberfran/projects/freertos-tn/middleware/multicore/open-amp/porting/env/freertos/rpmsg_porting.c.obj
 .text          0x0000000000000000        0x0 CMakeFiles/rpmsg_str_echo_freertos_example.dir/home/neuberfran/projects/freertos-tn/rtos/FreeRTOS/Source/croutine.c.obj
 .data          0x0000000000000000        0x0 CMakeFiles/rpmsg_str_echo_freertos_example.dir/home/neuberfran/projects/freertos-tn/rtos/FreeRTOS/Source/croutine.c.obj
 .bss           0x0000000000000000        0x0 CMakeFiles/rpmsg_str_echo_freertos_example.dir/home/neuberfran/projects/freertos-tn/rtos/FreeRTOS/Source/croutine.c.obj
 .bss.pxReadyCoRoutineLists
                0x0000000000000000       0x28 CMakeFiles/rpmsg_str_echo_freertos_example.dir/home/neuberfran/projects/freertos-tn/rtos/FreeRTOS/Source/croutine.c.obj
 .bss.xDelayedCoRoutineList1
                0x0000000000000000       0x14 CMakeFiles/rpmsg_str_echo_freertos_example.dir/home/neuberfran/projects/freertos-tn/rtos/FreeRTOS/Source/croutine.c.obj
 .bss.xDelayedCoRoutineList2
                0x0000000000000000       0x14 CMakeFiles/rpmsg_str_echo_freertos_example.dir/home/neuberfran/projects/freertos-tn/rtos/FreeRTOS/Source/croutine.c.obj
 .bss.pxDelayedCoRoutineList
                0x0000000000000000        0x4 CMakeFiles/rpmsg_str_echo_freertos_example.dir/home/neuberfran/projects/freertos-tn/rtos/FreeRTOS/Source/croutine.c.obj
 .bss.pxOverflowDelayedCoRoutineList
                0x0000000000000000        0x4 CMakeFiles/rpmsg_str_echo_freertos_example.dir/home/neuberfran/projects/freertos-tn/rtos/FreeRTOS/Source/croutine.c.obj
 .bss.xPendingReadyCoRoutineList
                0x0000000000000000       0x14 CMakeFiles/rpmsg_str_echo_freertos_example.dir/home/neuberfran/projects/freertos-tn/rtos/FreeRTOS/Source/croutine.c.obj
 .bss.pxCurrentCoRoutine
                0x0000000000000000        0x4 CMakeFiles/rpmsg_str_echo_freertos_example.dir/home/neuberfran/projects/freertos-tn/rtos/FreeRTOS/Source/croutine.c.obj
 .bss.uxTopCoRoutineReadyPriority
                0x0000000000000000        0x4 CMakeFiles/rpmsg_str_echo_freertos_example.dir/home/neuberfran/projects/freertos-tn/rtos/FreeRTOS/Source/croutine.c.obj
 .bss.xCoRoutineTickCount
                0x0000000000000000        0x4 CMakeFiles/rpmsg_str_echo_freertos_example.dir/home/neuberfran/projects/freertos-tn/rtos/FreeRTOS/Source/croutine.c.obj
 .bss.xLastTickCount
                0x0000000000000000        0x4 CMakeFiles/rpmsg_str_echo_freertos_example.dir/home/neuberfran/projects/freertos-tn/rtos/FreeRTOS/Source/croutine.c.obj
 .bss.xPassedTicks
                0x0000000000000000        0x4 CMakeFiles/rpmsg_str_echo_freertos_example.dir/home/neuberfran/projects/freertos-tn/rtos/FreeRTOS/Source/croutine.c.obj
 .text.xCoRoutineCreate
                0x0000000000000000       0xcc CMakeFiles/rpmsg_str_echo_freertos_example.dir/home/neuberfran/projects/freertos-tn/rtos/FreeRTOS/Source/croutine.c.obj
 .text.vCoRoutineAddToDelayedList
                0x0000000000000000       0x84 CMakeFiles/rpmsg_str_echo_freertos_example.dir/home/neuberfran/projects/freertos-tn/rtos/FreeRTOS/Source/croutine.c.obj
 .text.prvCheckPendingReadyList
                0x0000000000000000       0x7c CMakeFiles/rpmsg_str_echo_freertos_example.dir/home/neuberfran/projects/freertos-tn/rtos/FreeRTOS/Source/croutine.c.obj
 .text.prvCheckDelayedList
                0x0000000000000000       0xf8 CMakeFiles/rpmsg_str_echo_freertos_example.dir/home/neuberfran/projects/freertos-tn/rtos/FreeRTOS/Source/croutine.c.obj
 .text.vCoRoutineSchedule
                0x0000000000000000       0xa0 CMakeFiles/rpmsg_str_echo_freertos_example.dir/home/neuberfran/projects/freertos-tn/rtos/FreeRTOS/Source/croutine.c.obj
 .text.prvInitialiseCoRoutineLists
                0x0000000000000000       0x6c CMakeFiles/rpmsg_str_echo_freertos_example.dir/home/neuberfran/projects/freertos-tn/rtos/FreeRTOS/Source/croutine.c.obj
 .text.xCoRoutineRemoveFromEventList
                0x0000000000000000       0x50 CMakeFiles/rpmsg_str_echo_freertos_example.dir/home/neuberfran/projects/freertos-tn/rtos/FreeRTOS/Source/croutine.c.obj
 .debug_info    0x0000000000000000      0x4df CMakeFiles/rpmsg_str_echo_freertos_example.dir/home/neuberfran/projects/freertos-tn/rtos/FreeRTOS/Source/croutine.c.obj
 .debug_abbrev  0x0000000000000000      0x19a CMakeFiles/rpmsg_str_echo_freertos_example.dir/home/neuberfran/projects/freertos-tn/rtos/FreeRTOS/Source/croutine.c.obj
 .debug_aranges
                0x0000000000000000       0x50 CMakeFiles/rpmsg_str_echo_freertos_example.dir/home/neuberfran/projects/freertos-tn/rtos/FreeRTOS/Source/croutine.c.obj
 .debug_ranges  0x0000000000000000       0x40 CMakeFiles/rpmsg_str_echo_freertos_example.dir/home/neuberfran/projects/freertos-tn/rtos/FreeRTOS/Source/croutine.c.obj
 .debug_line    0x0000000000000000      0x459 CMakeFiles/rpmsg_str_echo_freertos_example.dir/home/neuberfran/projects/freertos-tn/rtos/FreeRTOS/Source/croutine.c.obj
 .debug_str     0x0000000000000000      0x595 CMakeFiles/rpmsg_str_echo_freertos_example.dir/home/neuberfran/projects/freertos-tn/rtos/FreeRTOS/Source/croutine.c.obj
 .comment       0x0000000000000000       0x4a CMakeFiles/rpmsg_str_echo_freertos_example.dir/home/neuberfran/projects/freertos-tn/rtos/FreeRTOS/Source/croutine.c.obj
 .debug_frame   0x0000000000000000      0x10c CMakeFiles/rpmsg_str_echo_freertos_example.dir/home/neuberfran/projects/freertos-tn/rtos/FreeRTOS/Source/croutine.c.obj
 .ARM.attributes
                0x0000000000000000       0x34 CMakeFiles/rpmsg_str_echo_freertos_example.dir/home/neuberfran/projects/freertos-tn/rtos/FreeRTOS/Source/croutine.c.obj
 .text          0x0000000000000000        0x0 CMakeFiles/rpmsg_str_echo_freertos_example.dir/home/neuberfran/projects/freertos-tn/rtos/FreeRTOS/Source/event_groups.c.obj
 .data          0x0000000000000000        0x0 CMakeFiles/rpmsg_str_echo_freertos_example.dir/home/neuberfran/projects/freertos-tn/rtos/FreeRTOS/Source/event_groups.c.obj
 .bss           0x0000000000000000        0x0 CMakeFiles/rpmsg_str_echo_freertos_example.dir/home/neuberfran/projects/freertos-tn/rtos/FreeRTOS/Source/event_groups.c.obj
 .text.xEventGroupCreate
                0x0000000000000000       0x2e CMakeFiles/rpmsg_str_echo_freertos_example.dir/home/neuberfran/projects/freertos-tn/rtos/FreeRTOS/Source/event_groups.c.obj
 .text.xEventGroupSync
                0x0000000000000000       0xf8 CMakeFiles/rpmsg_str_echo_freertos_example.dir/home/neuberfran/projects/freertos-tn/rtos/FreeRTOS/Source/event_groups.c.obj
 .text.xEventGroupWaitBits
                0x0000000000000000      0x11e CMakeFiles/rpmsg_str_echo_freertos_example.dir/home/neuberfran/projects/freertos-tn/rtos/FreeRTOS/Source/event_groups.c.obj
 .text.xEventGroupClearBits
                0x0000000000000000       0x44 CMakeFiles/rpmsg_str_echo_freertos_example.dir/home/neuberfran/projects/freertos-tn/rtos/FreeRTOS/Source/event_groups.c.obj
 .text.xEventGroupClearBitsFromISR
                0x0000000000000000       0x48 CMakeFiles/rpmsg_str_echo_freertos_example.dir/home/neuberfran/projects/freertos-tn/rtos/FreeRTOS/Source/event_groups.c.obj
 .text.xEventGroupSetBits
                0x0000000000000000       0xea CMakeFiles/rpmsg_str_echo_freertos_example.dir/home/neuberfran/projects/freertos-tn/rtos/FreeRTOS/Source/event_groups.c.obj
 .text.vEventGroupDelete
                0x0000000000000000       0x52 CMakeFiles/rpmsg_str_echo_freertos_example.dir/home/neuberfran/projects/freertos-tn/rtos/FreeRTOS/Source/event_groups.c.obj
 .text.vEventGroupSetBitsCallback
                0x0000000000000000       0x1a CMakeFiles/rpmsg_str_echo_freertos_example.dir/home/neuberfran/projects/freertos-tn/rtos/FreeRTOS/Source/event_groups.c.obj
 .text.prvTestWaitCondition
                0x0000000000000000       0x44 CMakeFiles/rpmsg_str_echo_freertos_example.dir/home/neuberfran/projects/freertos-tn/rtos/FreeRTOS/Source/event_groups.c.obj
 .debug_info    0x0000000000000000      0x629 CMakeFiles/rpmsg_str_echo_freertos_example.dir/home/neuberfran/projects/freertos-tn/rtos/FreeRTOS/Source/event_groups.c.obj
 .debug_abbrev  0x0000000000000000      0x14f CMakeFiles/rpmsg_str_echo_freertos_example.dir/home/neuberfran/projects/freertos-tn/rtos/FreeRTOS/Source/event_groups.c.obj
 .debug_aranges
                0x0000000000000000       0x60 CMakeFiles/rpmsg_str_echo_freertos_example.dir/home/neuberfran/projects/freertos-tn/rtos/FreeRTOS/Source/event_groups.c.obj
 .debug_ranges  0x0000000000000000       0x50 CMakeFiles/rpmsg_str_echo_freertos_example.dir/home/neuberfran/projects/freertos-tn/rtos/FreeRTOS/Source/event_groups.c.obj
 .debug_line    0x0000000000000000      0x517 CMakeFiles/rpmsg_str_echo_freertos_example.dir/home/neuberfran/projects/freertos-tn/rtos/FreeRTOS/Source/event_groups.c.obj
 .debug_str     0x0000000000000000      0x569 CMakeFiles/rpmsg_str_echo_freertos_example.dir/home/neuberfran/projects/freertos-tn/rtos/FreeRTOS/Source/event_groups.c.obj
 .comment       0x0000000000000000       0x4a CMakeFiles/rpmsg_str_echo_freertos_example.dir/home/neuberfran/projects/freertos-tn/rtos/FreeRTOS/Source/event_groups.c.obj
 .debug_frame   0x0000000000000000      0x158 CMakeFiles/rpmsg_str_echo_freertos_example.dir/home/neuberfran/projects/freertos-tn/rtos/FreeRTOS/Source/event_groups.c.obj
 .ARM.attributes
                0x0000000000000000       0x34 CMakeFiles/rpmsg_str_echo_freertos_example.dir/home/neuberfran/projects/freertos-tn/rtos/FreeRTOS/Source/event_groups.c.obj
 .text          0x0000000000000000        0x0 CMakeFiles/rpmsg_str_echo_freertos_example.dir/home/neuberfran/projects/freertos-tn/rtos/FreeRTOS/Source/list.c.obj
 .data          0x0000000000000000        0x0 CMakeFiles/rpmsg_str_echo_freertos_example.dir/home/neuberfran/projects/freertos-tn/rtos/FreeRTOS/Source/list.c.obj
 .bss           0x0000000000000000        0x0 CMakeFiles/rpmsg_str_echo_freertos_example.dir/home/neuberfran/projects/freertos-tn/rtos/FreeRTOS/Source/list.c.obj
 .text          0x0000000000000000        0x0 CMakeFiles/rpmsg_str_echo_freertos_example.dir/home/neuberfran/projects/freertos-tn/rtos/FreeRTOS/Source/queue.c.obj
 .data          0x0000000000000000        0x0 CMakeFiles/rpmsg_str_echo_freertos_example.dir/home/neuberfran/projects/freertos-tn/rtos/FreeRTOS/Source/queue.c.obj
 .bss           0x0000000000000000        0x0 CMakeFiles/rpmsg_str_echo_freertos_example.dir/home/neuberfran/projects/freertos-tn/rtos/FreeRTOS/Source/queue.c.obj
 .text.xQueuePeekFromISR
                0x0000000000000000       0x78 CMakeFiles/rpmsg_str_echo_freertos_example.dir/home/neuberfran/projects/freertos-tn/rtos/FreeRTOS/Source/queue.c.obj
 .text.uxQueueMessagesWaiting
                0x0000000000000000       0x2c CMakeFiles/rpmsg_str_echo_freertos_example.dir/home/neuberfran/projects/freertos-tn/rtos/FreeRTOS/Source/queue.c.obj
 .text.uxQueueSpacesAvailable
                0x0000000000000000       0x36 CMakeFiles/rpmsg_str_echo_freertos_example.dir/home/neuberfran/projects/freertos-tn/rtos/FreeRTOS/Source/queue.c.obj
 .text.uxQueueMessagesWaitingFromISR
                0x0000000000000000       0x24 CMakeFiles/rpmsg_str_echo_freertos_example.dir/home/neuberfran/projects/freertos-tn/rtos/FreeRTOS/Source/queue.c.obj
 .text.xQueueIsQueueEmptyFromISR
                0x0000000000000000       0x30 CMakeFiles/rpmsg_str_echo_freertos_example.dir/home/neuberfran/projects/freertos-tn/rtos/FreeRTOS/Source/queue.c.obj
 .text.xQueueIsQueueFullFromISR
                0x0000000000000000       0x34 CMakeFiles/rpmsg_str_echo_freertos_example.dir/home/neuberfran/projects/freertos-tn/rtos/FreeRTOS/Source/queue.c.obj
 .text.vQueueAddToRegistry
                0x0000000000000000       0x54 CMakeFiles/rpmsg_str_echo_freertos_example.dir/home/neuberfran/projects/freertos-tn/rtos/FreeRTOS/Source/queue.c.obj
 .text          0x0000000000000000        0x0 CMakeFiles/rpmsg_str_echo_freertos_example.dir/home/neuberfran/projects/freertos-tn/rtos/FreeRTOS/Source/tasks.c.obj
 .data          0x0000000000000000        0x0 CMakeFiles/rpmsg_str_echo_freertos_example.dir/home/neuberfran/projects/freertos-tn/rtos/FreeRTOS/Source/tasks.c.obj
 .bss           0x0000000000000000        0x0 CMakeFiles/rpmsg_str_echo_freertos_example.dir/home/neuberfran/projects/freertos-tn/rtos/FreeRTOS/Source/tasks.c.obj
 .text.vTaskSuspend
                0x0000000000000000       0xb0 CMakeFiles/rpmsg_str_echo_freertos_example.dir/home/neuberfran/projects/freertos-tn/rtos/FreeRTOS/Source/tasks.c.obj
 .text.prvTaskIsTaskSuspended
                0x0000000000000000       0x64 CMakeFiles/rpmsg_str_echo_freertos_example.dir/home/neuberfran/projects/freertos-tn/rtos/FreeRTOS/Source/tasks.c.obj
 .text.vTaskResume
                0x0000000000000000       0x9c CMakeFiles/rpmsg_str_echo_freertos_example.dir/home/neuberfran/projects/freertos-tn/rtos/FreeRTOS/Source/tasks.c.obj
 .text.xTaskResumeFromISR
                0x0000000000000000       0xb8 CMakeFiles/rpmsg_str_echo_freertos_example.dir/home/neuberfran/projects/freertos-tn/rtos/FreeRTOS/Source/tasks.c.obj
 .text.vTaskEndScheduler
                0x0000000000000000       0x1c CMakeFiles/rpmsg_str_echo_freertos_example.dir/home/neuberfran/projects/freertos-tn/rtos/FreeRTOS/Source/tasks.c.obj
 .text.xTaskGetTickCount
                0x0000000000000000       0x24 CMakeFiles/rpmsg_str_echo_freertos_example.dir/home/neuberfran/projects/freertos-tn/rtos/FreeRTOS/Source/tasks.c.obj
 .text.xTaskGetTickCountFromISR
                0x0000000000000000       0x2c CMakeFiles/rpmsg_str_echo_freertos_example.dir/home/neuberfran/projects/freertos-tn/rtos/FreeRTOS/Source/tasks.c.obj
 .text.uxTaskGetNumberOfTasks
                0x0000000000000000       0x18 CMakeFiles/rpmsg_str_echo_freertos_example.dir/home/neuberfran/projects/freertos-tn/rtos/FreeRTOS/Source/tasks.c.obj
 .text.vTaskPlaceOnUnorderedEventList
                0x0000000000000000       0x8c CMakeFiles/rpmsg_str_echo_freertos_example.dir/home/neuberfran/projects/freertos-tn/rtos/FreeRTOS/Source/tasks.c.obj
 .text.xTaskRemoveFromUnorderedEventList
                0x0000000000000000       0xb0 CMakeFiles/rpmsg_str_echo_freertos_example.dir/home/neuberfran/projects/freertos-tn/rtos/FreeRTOS/Source/tasks.c.obj
 .text.uxTaskResetEventItemValue
                0x0000000000000000       0x30 CMakeFiles/rpmsg_str_echo_freertos_example.dir/home/neuberfran/projects/freertos-tn/rtos/FreeRTOS/Source/tasks.c.obj
 .text          0x0000000000000000        0x0 CMakeFiles/rpmsg_str_echo_freertos_example.dir/home/neuberfran/projects/freertos-tn/rtos/FreeRTOS/Source/timers.c.obj
 .data          0x0000000000000000        0x0 CMakeFiles/rpmsg_str_echo_freertos_example.dir/home/neuberfran/projects/freertos-tn/rtos/FreeRTOS/Source/timers.c.obj
 .bss           0x0000000000000000        0x0 CMakeFiles/rpmsg_str_echo_freertos_example.dir/home/neuberfran/projects/freertos-tn/rtos/FreeRTOS/Source/timers.c.obj
 .debug_info    0x0000000000000000       0x6b CMakeFiles/rpmsg_str_echo_freertos_example.dir/home/neuberfran/projects/freertos-tn/rtos/FreeRTOS/Source/timers.c.obj
 .debug_abbrev  0x0000000000000000       0x26 CMakeFiles/rpmsg_str_echo_freertos_example.dir/home/neuberfran/projects/freertos-tn/rtos/FreeRTOS/Source/timers.c.obj
 .debug_aranges
                0x0000000000000000       0x18 CMakeFiles/rpmsg_str_echo_freertos_example.dir/home/neuberfran/projects/freertos-tn/rtos/FreeRTOS/Source/timers.c.obj
 .debug_line    0x0000000000000000       0x1d CMakeFiles/rpmsg_str_echo_freertos_example.dir/home/neuberfran/projects/freertos-tn/rtos/FreeRTOS/Source/timers.c.obj
 .debug_str     0x0000000000000000      0x22b CMakeFiles/rpmsg_str_echo_freertos_example.dir/home/neuberfran/projects/freertos-tn/rtos/FreeRTOS/Source/timers.c.obj
 .comment       0x0000000000000000       0x4a CMakeFiles/rpmsg_str_echo_freertos_example.dir/home/neuberfran/projects/freertos-tn/rtos/FreeRTOS/Source/timers.c.obj
 .ARM.attributes
                0x0000000000000000       0x34 CMakeFiles/rpmsg_str_echo_freertos_example.dir/home/neuberfran/projects/freertos-tn/rtos/FreeRTOS/Source/timers.c.obj
 .text          0x0000000000000000        0x0 CMakeFiles/rpmsg_str_echo_freertos_example.dir/home/neuberfran/projects/freertos-tn/platform/drivers/src/ccm_analog_imx7d.c.obj
 .data          0x0000000000000000        0x0 CMakeFiles/rpmsg_str_echo_freertos_example.dir/home/neuberfran/projects/freertos-tn/platform/drivers/src/ccm_analog_imx7d.c.obj
 .bss           0x0000000000000000        0x0 CMakeFiles/rpmsg_str_echo_freertos_example.dir/home/neuberfran/projects/freertos-tn/platform/drivers/src/ccm_analog_imx7d.c.obj
 .text.CCM_ANALOG_GetPfdFrac
                0x0000000000000000       0x30 CMakeFiles/rpmsg_str_echo_freertos_example.dir/home/neuberfran/projects/freertos-tn/platform/drivers/src/ccm_analog_imx7d.c.obj
 .text.CCM_ANALOG_GetArmPllFreq
                0x0000000000000000       0x40 CMakeFiles/rpmsg_str_echo_freertos_example.dir/home/neuberfran/projects/freertos-tn/platform/drivers/src/ccm_analog_imx7d.c.obj
 .text.CCM_ANALOG_GetDdrPllFreq
                0x0000000000000000       0xfc CMakeFiles/rpmsg_str_echo_freertos_example.dir/home/neuberfran/projects/freertos-tn/platform/drivers/src/ccm_analog_imx7d.c.obj
 .text.CCM_ANALOG_GetEnetPllFreq
                0x0000000000000000       0x30 CMakeFiles/rpmsg_str_echo_freertos_example.dir/home/neuberfran/projects/freertos-tn/platform/drivers/src/ccm_analog_imx7d.c.obj
 .text.CCM_ANALOG_GetAudioPllFreq
                0x0000000000000000      0x148 CMakeFiles/rpmsg_str_echo_freertos_example.dir/home/neuberfran/projects/freertos-tn/platform/drivers/src/ccm_analog_imx7d.c.obj
 .text.CCM_ANALOG_GetVideoPllFreq
                0x0000000000000000      0x148 CMakeFiles/rpmsg_str_echo_freertos_example.dir/home/neuberfran/projects/freertos-tn/platform/drivers/src/ccm_analog_imx7d.c.obj
 .rodata        0x0000000000000000       0x86 CMakeFiles/rpmsg_str_echo_freertos_example.dir/home/neuberfran/projects/freertos-tn/platform/drivers/src/ccm_analog_imx7d.c.obj
 .text.CCM_ANALOG_GetPfdFreq
                0x0000000000000000       0x68 CMakeFiles/rpmsg_str_echo_freertos_example.dir/home/neuberfran/projects/freertos-tn/platform/drivers/src/ccm_analog_imx7d.c.obj
 .rodata.__func__.0
                0x0000000000000000       0x16 CMakeFiles/rpmsg_str_echo_freertos_example.dir/home/neuberfran/projects/freertos-tn/platform/drivers/src/ccm_analog_imx7d.c.obj
 .text          0x0000000000000000        0x0 CMakeFiles/rpmsg_str_echo_freertos_example.dir/home/neuberfran/projects/freertos-tn/platform/drivers/src/ccm_imx7d.c.obj
 .data          0x0000000000000000        0x0 CMakeFiles/rpmsg_str_echo_freertos_example.dir/home/neuberfran/projects/freertos-tn/platform/drivers/src/ccm_imx7d.c.obj
 .bss           0x0000000000000000        0x0 CMakeFiles/rpmsg_str_echo_freertos_example.dir/home/neuberfran/projects/freertos-tn/platform/drivers/src/ccm_imx7d.c.obj
 .text.CCM_SetRootDivider
                0x0000000000000000       0x70 CMakeFiles/rpmsg_str_echo_freertos_example.dir/home/neuberfran/projects/freertos-tn/platform/drivers/src/ccm_imx7d.c.obj
 .rodata.__func__.2
                0x0000000000000000       0x13 CMakeFiles/rpmsg_str_echo_freertos_example.dir/home/neuberfran/projects/freertos-tn/platform/drivers/src/ccm_imx7d.c.obj
 .text          0x0000000000000000        0x0 CMakeFiles/rpmsg_str_echo_freertos_example.dir/home/neuberfran/projects/freertos-tn/platform/drivers/src/lmem.c.obj
 .data          0x0000000000000000        0x0 CMakeFiles/rpmsg_str_echo_freertos_example.dir/home/neuberfran/projects/freertos-tn/platform/drivers/src/lmem.c.obj
 .bss           0x0000000000000000        0x0 CMakeFiles/rpmsg_str_echo_freertos_example.dir/home/neuberfran/projects/freertos-tn/platform/drivers/src/lmem.c.obj
 .text.LMEM_EnableSystemCache
                0x0000000000000000       0x4e CMakeFiles/rpmsg_str_echo_freertos_example.dir/home/neuberfran/projects/freertos-tn/platform/drivers/src/lmem.c.obj
 .text.LMEM_DisableSystemCache
                0x0000000000000000       0x28 CMakeFiles/rpmsg_str_echo_freertos_example.dir/home/neuberfran/projects/freertos-tn/platform/drivers/src/lmem.c.obj
 .text.LMEM_FlushSystemCache
                0x0000000000000000       0x42 CMakeFiles/rpmsg_str_echo_freertos_example.dir/home/neuberfran/projects/freertos-tn/platform/drivers/src/lmem.c.obj
 .rodata        0x0000000000000000       0x83 CMakeFiles/rpmsg_str_echo_freertos_example.dir/home/neuberfran/projects/freertos-tn/platform/drivers/src/lmem.c.obj
 .text.LMEM_FlushSystemCacheLine
                0x0000000000000000       0x60 CMakeFiles/rpmsg_str_echo_freertos_example.dir/home/neuberfran/projects/freertos-tn/platform/drivers/src/lmem.c.obj
 .text.LMEM_FlushSystemCacheLines
                0x0000000000000000       0x3c CMakeFiles/rpmsg_str_echo_freertos_example.dir/home/neuberfran/projects/freertos-tn/platform/drivers/src/lmem.c.obj
 .text.LMEM_InvalidateSystemCache
                0x0000000000000000       0x4c CMakeFiles/rpmsg_str_echo_freertos_example.dir/home/neuberfran/projects/freertos-tn/platform/drivers/src/lmem.c.obj
 .text.LMEM_InvalidateSystemCacheLine
                0x0000000000000000       0x60 CMakeFiles/rpmsg_str_echo_freertos_example.dir/home/neuberfran/projects/freertos-tn/platform/drivers/src/lmem.c.obj
 .text.LMEM_InvalidateSystemCacheLines
                0x0000000000000000       0x46 CMakeFiles/rpmsg_str_echo_freertos_example.dir/home/neuberfran/projects/freertos-tn/platform/drivers/src/lmem.c.obj
 .text.LMEM_EnableCodeCache
                0x0000000000000000       0x44 CMakeFiles/rpmsg_str_echo_freertos_example.dir/home/neuberfran/projects/freertos-tn/platform/drivers/src/lmem.c.obj
 .text.LMEM_DisableCodeCache
                0x0000000000000000       0x26 CMakeFiles/rpmsg_str_echo_freertos_example.dir/home/neuberfran/projects/freertos-tn/platform/drivers/src/lmem.c.obj
 .text.LMEM_FlushCodeCache
                0x0000000000000000       0x38 CMakeFiles/rpmsg_str_echo_freertos_example.dir/home/neuberfran/projects/freertos-tn/platform/drivers/src/lmem.c.obj
 .text.LMEM_FlushCodeCacheLine
                0x0000000000000000       0x58 CMakeFiles/rpmsg_str_echo_freertos_example.dir/home/neuberfran/projects/freertos-tn/platform/drivers/src/lmem.c.obj
 .text.LMEM_FlushCodeCacheLines
                0x0000000000000000       0x3c CMakeFiles/rpmsg_str_echo_freertos_example.dir/home/neuberfran/projects/freertos-tn/platform/drivers/src/lmem.c.obj
 .text.LMEM_InvalidateCodeCache
                0x0000000000000000       0x42 CMakeFiles/rpmsg_str_echo_freertos_example.dir/home/neuberfran/projects/freertos-tn/platform/drivers/src/lmem.c.obj
 .text.LMEM_InvalidateCodeCacheLine
                0x0000000000000000       0x5c CMakeFiles/rpmsg_str_echo_freertos_example.dir/home/neuberfran/projects/freertos-tn/platform/drivers/src/lmem.c.obj
 .text.LMEM_InvalidateCodeCacheLines
                0x0000000000000000       0x46 CMakeFiles/rpmsg_str_echo_freertos_example.dir/home/neuberfran/projects/freertos-tn/platform/drivers/src/lmem.c.obj
 .rodata.__func__.3
                0x0000000000000000       0x1a CMakeFiles/rpmsg_str_echo_freertos_example.dir/home/neuberfran/projects/freertos-tn/platform/drivers/src/lmem.c.obj
 .rodata.__func__.2
                0x0000000000000000       0x1f CMakeFiles/rpmsg_str_echo_freertos_example.dir/home/neuberfran/projects/freertos-tn/platform/drivers/src/lmem.c.obj
 .rodata.__func__.1
                0x0000000000000000       0x18 CMakeFiles/rpmsg_str_echo_freertos_example.dir/home/neuberfran/projects/freertos-tn/platform/drivers/src/lmem.c.obj
 .rodata.__func__.0
                0x0000000000000000       0x1d CMakeFiles/rpmsg_str_echo_freertos_example.dir/home/neuberfran/projects/freertos-tn/platform/drivers/src/lmem.c.obj
 .debug_info    0x0000000000000000      0x650 CMakeFiles/rpmsg_str_echo_freertos_example.dir/home/neuberfran/projects/freertos-tn/platform/drivers/src/lmem.c.obj
 .debug_abbrev  0x0000000000000000      0x1da CMakeFiles/rpmsg_str_echo_freertos_example.dir/home/neuberfran/projects/freertos-tn/platform/drivers/src/lmem.c.obj
 .debug_aranges
                0x0000000000000000       0x98 CMakeFiles/rpmsg_str_echo_freertos_example.dir/home/neuberfran/projects/freertos-tn/platform/drivers/src/lmem.c.obj
 .debug_ranges  0x0000000000000000       0x88 CMakeFiles/rpmsg_str_echo_freertos_example.dir/home/neuberfran/projects/freertos-tn/platform/drivers/src/lmem.c.obj
 .debug_line    0x0000000000000000      0x639 CMakeFiles/rpmsg_str_echo_freertos_example.dir/home/neuberfran/projects/freertos-tn/platform/drivers/src/lmem.c.obj
 .debug_str     0x0000000000000000      0x451 CMakeFiles/rpmsg_str_echo_freertos_example.dir/home/neuberfran/projects/freertos-tn/platform/drivers/src/lmem.c.obj
 .comment       0x0000000000000000       0x4a CMakeFiles/rpmsg_str_echo_freertos_example.dir/home/neuberfran/projects/freertos-tn/platform/drivers/src/lmem.c.obj
 .debug_frame   0x0000000000000000      0x270 CMakeFiles/rpmsg_str_echo_freertos_example.dir/home/neuberfran/projects/freertos-tn/platform/drivers/src/lmem.c.obj
 .ARM.attributes
                0x0000000000000000       0x34 CMakeFiles/rpmsg_str_echo_freertos_example.dir/home/neuberfran/projects/freertos-tn/platform/drivers/src/lmem.c.obj
 .text          0x0000000000000000        0x0 CMakeFiles/rpmsg_str_echo_freertos_example.dir/home/neuberfran/projects/freertos-tn/platform/drivers/src/rdc.c.obj
 .data          0x0000000000000000        0x0 CMakeFiles/rpmsg_str_echo_freertos_example.dir/home/neuberfran/projects/freertos-tn/platform/drivers/src/rdc.c.obj
 .bss           0x0000000000000000        0x0 CMakeFiles/rpmsg_str_echo_freertos_example.dir/home/neuberfran/projects/freertos-tn/platform/drivers/src/rdc.c.obj
 .text.RDC_SetMrAccess
                0x0000000000000000       0x6a CMakeFiles/rpmsg_str_echo_freertos_example.dir/home/neuberfran/projects/freertos-tn/platform/drivers/src/rdc.c.obj
 .text.RDC_GetMrAccess
                0x0000000000000000       0x58 CMakeFiles/rpmsg_str_echo_freertos_example.dir/home/neuberfran/projects/freertos-tn/platform/drivers/src/rdc.c.obj
 .text.RDC_GetViolationStatus
                0x0000000000000000       0x5a CMakeFiles/rpmsg_str_echo_freertos_example.dir/home/neuberfran/projects/freertos-tn/platform/drivers/src/rdc.c.obj
 .debug_info    0x0000000000000000      0x34e CMakeFiles/rpmsg_str_echo_freertos_example.dir/home/neuberfran/projects/freertos-tn/platform/drivers/src/rdc.c.obj
 .debug_abbrev  0x0000000000000000      0x147 CMakeFiles/rpmsg_str_echo_freertos_example.dir/home/neuberfran/projects/freertos-tn/platform/drivers/src/rdc.c.obj
 .debug_aranges
                0x0000000000000000       0x30 CMakeFiles/rpmsg_str_echo_freertos_example.dir/home/neuberfran/projects/freertos-tn/platform/drivers/src/rdc.c.obj
 .debug_ranges  0x0000000000000000       0x20 CMakeFiles/rpmsg_str_echo_freertos_example.dir/home/neuberfran/projects/freertos-tn/platform/drivers/src/rdc.c.obj
 .debug_line    0x0000000000000000      0x228 CMakeFiles/rpmsg_str_echo_freertos_example.dir/home/neuberfran/projects/freertos-tn/platform/drivers/src/rdc.c.obj
 .debug_str     0x0000000000000000      0x31a CMakeFiles/rpmsg_str_echo_freertos_example.dir/home/neuberfran/projects/freertos-tn/platform/drivers/src/rdc.c.obj
 .comment       0x0000000000000000       0x4a CMakeFiles/rpmsg_str_echo_freertos_example.dir/home/neuberfran/projects/freertos-tn/platform/drivers/src/rdc.c.obj
 .debug_frame   0x0000000000000000       0x88 CMakeFiles/rpmsg_str_echo_freertos_example.dir/home/neuberfran/projects/freertos-tn/platform/drivers/src/rdc.c.obj
 .ARM.attributes
                0x0000000000000000       0x34 CMakeFiles/rpmsg_str_echo_freertos_example.dir/home/neuberfran/projects/freertos-tn/platform/drivers/src/rdc.c.obj
 .text          0x0000000000000000        0x0 CMakeFiles/rpmsg_str_echo_freertos_example.dir/home/neuberfran/projects/freertos-tn/platform/drivers/src/wdog_imx.c.obj
 .data          0x0000000000000000        0x0 CMakeFiles/rpmsg_str_echo_freertos_example.dir/home/neuberfran/projects/freertos-tn/platform/drivers/src/wdog_imx.c.obj
 .bss           0x0000000000000000        0x0 CMakeFiles/rpmsg_str_echo_freertos_example.dir/home/neuberfran/projects/freertos-tn/platform/drivers/src/wdog_imx.c.obj
 .text.WDOG_Enable
                0x0000000000000000       0x3a CMakeFiles/rpmsg_str_echo_freertos_example.dir/home/neuberfran/projects/freertos-tn/platform/drivers/src/wdog_imx.c.obj
 .text.WDOG_Reset
                0x0000000000000000       0x44 CMakeFiles/rpmsg_str_echo_freertos_example.dir/home/neuberfran/projects/freertos-tn/platform/drivers/src/wdog_imx.c.obj
 .text.WDOG_Refresh
                0x0000000000000000       0x24 CMakeFiles/rpmsg_str_echo_freertos_example.dir/home/neuberfran/projects/freertos-tn/platform/drivers/src/wdog_imx.c.obj
 .debug_info    0x0000000000000000      0x1b2 CMakeFiles/rpmsg_str_echo_freertos_example.dir/home/neuberfran/projects/freertos-tn/platform/drivers/src/wdog_imx.c.obj
 .debug_abbrev  0x0000000000000000       0xf9 CMakeFiles/rpmsg_str_echo_freertos_example.dir/home/neuberfran/projects/freertos-tn/platform/drivers/src/wdog_imx.c.obj
 .debug_aranges
                0x0000000000000000       0x30 CMakeFiles/rpmsg_str_echo_freertos_example.dir/home/neuberfran/projects/freertos-tn/platform/drivers/src/wdog_imx.c.obj
 .debug_ranges  0x0000000000000000       0x20 CMakeFiles/rpmsg_str_echo_freertos_example.dir/home/neuberfran/projects/freertos-tn/platform/drivers/src/wdog_imx.c.obj
 .debug_line    0x0000000000000000      0x1e0 CMakeFiles/rpmsg_str_echo_freertos_example.dir/home/neuberfran/projects/freertos-tn/platform/drivers/src/wdog_imx.c.obj
 .debug_str     0x0000000000000000      0x289 CMakeFiles/rpmsg_str_echo_freertos_example.dir/home/neuberfran/projects/freertos-tn/platform/drivers/src/wdog_imx.c.obj
 .comment       0x0000000000000000       0x4a CMakeFiles/rpmsg_str_echo_freertos_example.dir/home/neuberfran/projects/freertos-tn/platform/drivers/src/wdog_imx.c.obj
 .debug_frame   0x0000000000000000       0x88 CMakeFiles/rpmsg_str_echo_freertos_example.dir/home/neuberfran/projects/freertos-tn/platform/drivers/src/wdog_imx.c.obj
 .ARM.attributes
                0x0000000000000000       0x34 CMakeFiles/rpmsg_str_echo_freertos_example.dir/home/neuberfran/projects/freertos-tn/platform/drivers/src/wdog_imx.c.obj
 .text          0x0000000000000000        0x0 CMakeFiles/rpmsg_str_echo_freertos_example.dir/home/neuberfran/projects/freertos-tn/platform/utilities/src/debug_console_imx.c.obj
 .data          0x0000000000000000        0x0 CMakeFiles/rpmsg_str_echo_freertos_example.dir/home/neuberfran/projects/freertos-tn/platform/utilities/src/debug_console_imx.c.obj
 .bss           0x0000000000000000        0x0 CMakeFiles/rpmsg_str_echo_freertos_example.dir/home/neuberfran/projects/freertos-tn/platform/utilities/src/debug_console_imx.c.obj
 .text.UART_Disable
                0x0000000000000000       0x24 CMakeFiles/rpmsg_str_echo_freertos_example.dir/home/neuberfran/projects/freertos-tn/platform/utilities/src/debug_console_imx.c.obj
 .text.DbgConsole_DeInit
                0x0000000000000000       0x3c CMakeFiles/rpmsg_str_echo_freertos_example.dir/home/neuberfran/projects/freertos-tn/platform/utilities/src/debug_console_imx.c.obj
 .text.debug_putchar
                0x0000000000000000       0x34 CMakeFiles/rpmsg_str_echo_freertos_example.dir/home/neuberfran/projects/freertos-tn/platform/utilities/src/debug_console_imx.c.obj
 .text.debug_scanf
                0x0000000000000000       0x98 CMakeFiles/rpmsg_str_echo_freertos_example.dir/home/neuberfran/projects/freertos-tn/platform/utilities/src/debug_console_imx.c.obj
 .text.debug_getchar
                0x0000000000000000       0x38 CMakeFiles/rpmsg_str_echo_freertos_example.dir/home/neuberfran/projects/freertos-tn/platform/utilities/src/debug_console_imx.c.obj
 .text          0x0000000000000000        0x0 CMakeFiles/rpmsg_str_echo_freertos_example.dir/home/neuberfran/projects/freertos-tn/platform/utilities/src/print_scan.c.obj
 .data          0x0000000000000000        0x0 CMakeFiles/rpmsg_str_echo_freertos_example.dir/home/neuberfran/projects/freertos-tn/platform/utilities/src/print_scan.c.obj
 .bss           0x0000000000000000        0x0 CMakeFiles/rpmsg_str_echo_freertos_example.dir/home/neuberfran/projects/freertos-tn/platform/utilities/src/print_scan.c.obj
 .text._sputc   0x0000000000000000       0x2c CMakeFiles/rpmsg_str_echo_freertos_example.dir/home/neuberfran/projects/freertos-tn/platform/utilities/src/print_scan.c.obj
 .text.scan_prv
                0x0000000000000000      0x734 CMakeFiles/rpmsg_str_echo_freertos_example.dir/home/neuberfran/projects/freertos-tn/platform/utilities/src/print_scan.c.obj
 .text.scan_ignore_white_space
                0x0000000000000000       0x60 CMakeFiles/rpmsg_str_echo_freertos_example.dir/home/neuberfran/projects/freertos-tn/platform/utilities/src/print_scan.c.obj
 .text          0x0000000000000000        0x0 CMakeFiles/rpmsg_str_echo_freertos_example.dir/home/neuberfran/projects/freertos-tn/platform/devices/MCIMX7D/startup/system_MCIMX7D_M4.c.obj
 .data          0x0000000000000000        0x0 CMakeFiles/rpmsg_str_echo_freertos_example.dir/home/neuberfran/projects/freertos-tn/platform/devices/MCIMX7D/startup/system_MCIMX7D_M4.c.obj
 .bss           0x0000000000000000        0x0 CMakeFiles/rpmsg_str_echo_freertos_example.dir/home/neuberfran/projects/freertos-tn/platform/devices/MCIMX7D/startup/system_MCIMX7D_M4.c.obj
 .data.SystemCoreClock
                0x0000000000000000        0x4 CMakeFiles/rpmsg_str_echo_freertos_example.dir/home/neuberfran/projects/freertos-tn/platform/devices/MCIMX7D/startup/system_MCIMX7D_M4.c.obj
 .text.SystemCoreClockUpdate
                0x0000000000000000      0x4e0 CMakeFiles/rpmsg_str_echo_freertos_example.dir/home/neuberfran/projects/freertos-tn/platform/devices/MCIMX7D/startup/system_MCIMX7D_M4.c.obj
 .text          0x0000000000000000        0x0 CMakeFiles/rpmsg_str_echo_freertos_example.dir/home/neuberfran/projects/freertos-tn/examples/imx7d_pico_m4/pin_mux.c.obj
 .data          0x0000000000000000        0x0 CMakeFiles/rpmsg_str_echo_freertos_example.dir/home/neuberfran/projects/freertos-tn/examples/imx7d_pico_m4/pin_mux.c.obj
 .bss           0x0000000000000000        0x0 CMakeFiles/rpmsg_str_echo_freertos_example.dir/home/neuberfran/projects/freertos-tn/examples/imx7d_pico_m4/pin_mux.c.obj
 .text.configure_flexcan_pins
                0x0000000000000000       0x80 CMakeFiles/rpmsg_str_echo_freertos_example.dir/home/neuberfran/projects/freertos-tn/examples/imx7d_pico_m4/pin_mux.c.obj
 .text.configure_i2c_pins
                0x0000000000000000      0x11c CMakeFiles/rpmsg_str_echo_freertos_example.dir/home/neuberfran/projects/freertos-tn/examples/imx7d_pico_m4/pin_mux.c.obj
 .text          0x0000000000000000        0x0 CMakeFiles/rpmsg_str_echo_freertos_example.dir/home/neuberfran/projects/freertos-tn/examples/imx7d_pico_m4/board.c.obj
 .data          0x0000000000000000        0x0 CMakeFiles/rpmsg_str_echo_freertos_example.dir/home/neuberfran/projects/freertos-tn/examples/imx7d_pico_m4/board.c.obj
 .bss           0x0000000000000000        0x0 CMakeFiles/rpmsg_str_echo_freertos_example.dir/home/neuberfran/projects/freertos-tn/examples/imx7d_pico_m4/board.c.obj
 .text          0x0000000000000000        0x0 CMakeFiles/rpmsg_str_echo_freertos_example.dir/home/neuberfran/projects/freertos-tn/examples/imx7d_pico_m4/clock_freq.c.obj
 .data          0x0000000000000000        0x0 CMakeFiles/rpmsg_str_echo_freertos_example.dir/home/neuberfran/projects/freertos-tn/examples/imx7d_pico_m4/clock_freq.c.obj
 .bss           0x0000000000000000        0x0 CMakeFiles/rpmsg_str_echo_freertos_example.dir/home/neuberfran/projects/freertos-tn/examples/imx7d_pico_m4/clock_freq.c.obj
 .text.get_gpt_clock_freq
                0x0000000000000000       0xb0 CMakeFiles/rpmsg_str_echo_freertos_example.dir/home/neuberfran/projects/freertos-tn/examples/imx7d_pico_m4/clock_freq.c.obj
 .text.get_ecspi_clock_freq
                0x0000000000000000       0xb0 CMakeFiles/rpmsg_str_echo_freertos_example.dir/home/neuberfran/projects/freertos-tn/examples/imx7d_pico_m4/clock_freq.c.obj
 .text.get_flexcan_clock_freq
                0x0000000000000000       0xc8 CMakeFiles/rpmsg_str_echo_freertos_example.dir/home/neuberfran/projects/freertos-tn/examples/imx7d_pico_m4/clock_freq.c.obj
 .text.get_i2c_clock_freq
                0x0000000000000000      0x110 CMakeFiles/rpmsg_str_echo_freertos_example.dir/home/neuberfran/projects/freertos-tn/examples/imx7d_pico_m4/clock_freq.c.obj
 .text          0x0000000000000000        0x0 CMakeFiles/rpmsg_str_echo_freertos_example.dir/home/neuberfran/projects/freertos-tn/examples/imx7d_pico_m4/demo_apps/rpmsg/str_echo_freertos/hardware_init.c.obj
 .data          0x0000000000000000        0x0 CMakeFiles/rpmsg_str_echo_freertos_example.dir/home/neuberfran/projects/freertos-tn/examples/imx7d_pico_m4/demo_apps/rpmsg/str_echo_freertos/hardware_init.c.obj
 .bss           0x0000000000000000        0x0 CMakeFiles/rpmsg_str_echo_freertos_example.dir/home/neuberfran/projects/freertos-tn/examples/imx7d_pico_m4/demo_apps/rpmsg/str_echo_freertos/hardware_init.c.obj
 .text          0x0000000000000000        0x0 CMakeFiles/rpmsg_str_echo_freertos_example.dir/home/neuberfran/projects/freertos-tn/platform/drivers/src/uart_imx.c.obj
 .data          0x0000000000000000        0x0 CMakeFiles/rpmsg_str_echo_freertos_example.dir/home/neuberfran/projects/freertos-tn/platform/drivers/src/uart_imx.c.obj
 .bss           0x0000000000000000        0x0 CMakeFiles/rpmsg_str_echo_freertos_example.dir/home/neuberfran/projects/freertos-tn/platform/drivers/src/uart_imx.c.obj
 .text.UART_SetInvertCmd
                0x0000000000000000       0xb4 CMakeFiles/rpmsg_str_echo_freertos_example.dir/home/neuberfran/projects/freertos-tn/platform/drivers/src/uart_imx.c.obj
 .text.UART_SetDozeMode
                0x0000000000000000       0x40 CMakeFiles/rpmsg_str_echo_freertos_example.dir/home/neuberfran/projects/freertos-tn/platform/drivers/src/uart_imx.c.obj
 .text.UART_SetLowPowerMode
                0x0000000000000000       0x40 CMakeFiles/rpmsg_str_echo_freertos_example.dir/home/neuberfran/projects/freertos-tn/platform/drivers/src/uart_imx.c.obj
 .text.UART_SetIntCmd
                0x0000000000000000       0x5a CMakeFiles/rpmsg_str_echo_freertos_example.dir/home/neuberfran/projects/freertos-tn/platform/drivers/src/uart_imx.c.obj
 .text.UART_ClearStatusFlag
                0x0000000000000000       0x3a CMakeFiles/rpmsg_str_echo_freertos_example.dir/home/neuberfran/projects/freertos-tn/platform/drivers/src/uart_imx.c.obj
 .text.UART_SetDmaCmd
                0x0000000000000000       0x5a CMakeFiles/rpmsg_str_echo_freertos_example.dir/home/neuberfran/projects/freertos-tn/platform/drivers/src/uart_imx.c.obj
 .text.UART_SetRtsFlowCtrlCmd
                0x0000000000000000       0x40 CMakeFiles/rpmsg_str_echo_freertos_example.dir/home/neuberfran/projects/freertos-tn/platform/drivers/src/uart_imx.c.obj
 .text.UART_SetCtsFlowCtrlCmd
                0x0000000000000000       0x40 CMakeFiles/rpmsg_str_echo_freertos_example.dir/home/neuberfran/projects/freertos-tn/platform/drivers/src/uart_imx.c.obj
 .text.UART_SetCtsPinLevel
                0x0000000000000000       0x40 CMakeFiles/rpmsg_str_echo_freertos_example.dir/home/neuberfran/projects/freertos-tn/platform/drivers/src/uart_imx.c.obj
 .text.UART_SetModemMode
                0x0000000000000000       0x24 CMakeFiles/rpmsg_str_echo_freertos_example.dir/home/neuberfran/projects/freertos-tn/platform/drivers/src/uart_imx.c.obj
 .text.UART_SetDtrPinLevel
                0x0000000000000000       0x40 CMakeFiles/rpmsg_str_echo_freertos_example.dir/home/neuberfran/projects/freertos-tn/platform/drivers/src/uart_imx.c.obj
 .text.UART_SetDcdPinLevel
                0x0000000000000000       0x40 CMakeFiles/rpmsg_str_echo_freertos_example.dir/home/neuberfran/projects/freertos-tn/platform/drivers/src/uart_imx.c.obj
 .text.UART_SetRiPinLevel
                0x0000000000000000       0x40 CMakeFiles/rpmsg_str_echo_freertos_example.dir/home/neuberfran/projects/freertos-tn/platform/drivers/src/uart_imx.c.obj
 .text.UART_Putchar9
                0x0000000000000000       0x6c CMakeFiles/rpmsg_str_echo_freertos_example.dir/home/neuberfran/projects/freertos-tn/platform/drivers/src/uart_imx.c.obj
 .text.UART_Getchar9
                0x0000000000000000       0x3e CMakeFiles/rpmsg_str_echo_freertos_example.dir/home/neuberfran/projects/freertos-tn/platform/drivers/src/uart_imx.c.obj
 .text.UART_SetMultidropMode
                0x0000000000000000       0x40 CMakeFiles/rpmsg_str_echo_freertos_example.dir/home/neuberfran/projects/freertos-tn/platform/drivers/src/uart_imx.c.obj
 .text.UART_SetSlaveAddressDetectCmd
                0x0000000000000000       0x40 CMakeFiles/rpmsg_str_echo_freertos_example.dir/home/neuberfran/projects/freertos-tn/platform/drivers/src/uart_imx.c.obj
 .text.UART_SetIrDACmd
                0x0000000000000000       0x40 CMakeFiles/rpmsg_str_echo_freertos_example.dir/home/neuberfran/projects/freertos-tn/platform/drivers/src/uart_imx.c.obj
 .text.UART_SetIrDAVoteClock
                0x0000000000000000       0x60 CMakeFiles/rpmsg_str_echo_freertos_example.dir/home/neuberfran/projects/freertos-tn/platform/drivers/src/uart_imx.c.obj
 .text.UART_SetAutoBaudRateCmd
                0x0000000000000000       0x40 CMakeFiles/rpmsg_str_echo_freertos_example.dir/home/neuberfran/projects/freertos-tn/platform/drivers/src/uart_imx.c.obj
 .text.UART_SendBreakChar
                0x0000000000000000       0x40 CMakeFiles/rpmsg_str_echo_freertos_example.dir/home/neuberfran/projects/freertos-tn/platform/drivers/src/uart_imx.c.obj
 .text.UART_SetEscapeDecectCmd
                0x0000000000000000       0x40 CMakeFiles/rpmsg_str_echo_freertos_example.dir/home/neuberfran/projects/freertos-tn/platform/drivers/src/uart_imx.c.obj
 .rodata.__func__.3
                0x0000000000000000       0x12 CMakeFiles/rpmsg_str_echo_freertos_example.dir/home/neuberfran/projects/freertos-tn/platform/drivers/src/uart_imx.c.obj
 .rodata.__func__.2
                0x0000000000000000       0x12 CMakeFiles/rpmsg_str_echo_freertos_example.dir/home/neuberfran/projects/freertos-tn/platform/drivers/src/uart_imx.c.obj
 .rodata.__func__.1
                0x0000000000000000        0xe CMakeFiles/rpmsg_str_echo_freertos_example.dir/home/neuberfran/projects/freertos-tn/platform/drivers/src/uart_imx.c.obj
 .rodata.__func__.0
                0x0000000000000000       0x16 CMakeFiles/rpmsg_str_echo_freertos_example.dir/home/neuberfran/projects/freertos-tn/platform/drivers/src/uart_imx.c.obj
 .text          0x0000000000000000        0x0 CMakeFiles/rpmsg_str_echo_freertos_example.dir/home/neuberfran/projects/freertos-tn/platform/drivers/src/mu_imx.c.obj
 .data          0x0000000000000000        0x0 CMakeFiles/rpmsg_str_echo_freertos_example.dir/home/neuberfran/projects/freertos-tn/platform/drivers/src/mu_imx.c.obj
 .bss           0x0000000000000000        0x0 CMakeFiles/rpmsg_str_echo_freertos_example.dir/home/neuberfran/projects/freertos-tn/platform/drivers/src/mu_imx.c.obj
 .text.MU_IsTxEmpty
                0x0000000000000000       0x30 CMakeFiles/rpmsg_str_echo_freertos_example.dir/home/neuberfran/projects/freertos-tn/platform/drivers/src/mu_imx.c.obj
 .text.MU_IsGeneralIntAccepted
                0x0000000000000000       0x30 CMakeFiles/rpmsg_str_echo_freertos_example.dir/home/neuberfran/projects/freertos-tn/platform/drivers/src/mu_imx.c.obj
 .text.MU_IsFlagPending
                0x0000000000000000       0x26 CMakeFiles/rpmsg_str_echo_freertos_example.dir/home/neuberfran/projects/freertos-tn/platform/drivers/src/mu_imx.c.obj
 .text.MU_TrySendMsg
                0x0000000000000000       0x50 CMakeFiles/rpmsg_str_echo_freertos_example.dir/home/neuberfran/projects/freertos-tn/platform/drivers/src/mu_imx.c.obj
 .text.MU_ReceiveMsg
                0x0000000000000000       0x5c CMakeFiles/rpmsg_str_echo_freertos_example.dir/home/neuberfran/projects/freertos-tn/platform/drivers/src/mu_imx.c.obj
 .text.MU_TriggerGeneralInt
                0x0000000000000000       0x3e CMakeFiles/rpmsg_str_echo_freertos_example.dir/home/neuberfran/projects/freertos-tn/platform/drivers/src/mu_imx.c.obj
 .text.MU_TrySetFlags
                0x0000000000000000       0x38 CMakeFiles/rpmsg_str_echo_freertos_example.dir/home/neuberfran/projects/freertos-tn/platform/drivers/src/mu_imx.c.obj
 .text.MU_SetFlags
                0x0000000000000000       0x34 CMakeFiles/rpmsg_str_echo_freertos_example.dir/home/neuberfran/projects/freertos-tn/platform/drivers/src/mu_imx.c.obj
 .rodata.__func__.3
                0x0000000000000000        0xe CMakeFiles/rpmsg_str_echo_freertos_example.dir/home/neuberfran/projects/freertos-tn/platform/drivers/src/mu_imx.c.obj
 .rodata.__func__.0
                0x0000000000000000        0xe CMakeFiles/rpmsg_str_echo_freertos_example.dir/home/neuberfran/projects/freertos-tn/platform/drivers/src/mu_imx.c.obj
 .text          0x0000000000000000        0x0 /home/neuberfran/neuber/gcc-arm-none-eabi-10.3-2021.10/bin/../lib/gcc/arm-none-eabi/10.3.1/../../../../arm-none-eabi/lib/thumb/v7e-m+fp/hard/libc_nano.a(lib_a-assert.o)
 .data          0x0000000000000000        0x0 /home/neuberfran/neuber/gcc-arm-none-eabi-10.3-2021.10/bin/../lib/gcc/arm-none-eabi/10.3.1/../../../../arm-none-eabi/lib/thumb/v7e-m+fp/hard/libc_nano.a(lib_a-assert.o)
 .bss           0x0000000000000000        0x0 /home/neuberfran/neuber/gcc-arm-none-eabi-10.3-2021.10/bin/../lib/gcc/arm-none-eabi/10.3.1/../../../../arm-none-eabi/lib/thumb/v7e-m+fp/hard/libc_nano.a(lib_a-assert.o)
 .text.__assert
                0x0000000000000000        0xa /home/neuberfran/neuber/gcc-arm-none-eabi-10.3-2021.10/bin/../lib/gcc/arm-none-eabi/10.3.1/../../../../arm-none-eabi/lib/thumb/v7e-m+fp/hard/libc_nano.a(lib_a-assert.o)
 .text          0x0000000000000000        0x0 /home/neuberfran/neuber/gcc-arm-none-eabi-10.3-2021.10/bin/../lib/gcc/arm-none-eabi/10.3.1/../../../../arm-none-eabi/lib/thumb/v7e-m+fp/hard/libc_nano.a(lib_a-exit.o)
 .data          0x0000000000000000        0x0 /home/neuberfran/neuber/gcc-arm-none-eabi-10.3-2021.10/bin/../lib/gcc/arm-none-eabi/10.3.1/../../../../arm-none-eabi/lib/thumb/v7e-m+fp/hard/libc_nano.a(lib_a-exit.o)
 .bss           0x0000000000000000        0x0 /home/neuberfran/neuber/gcc-arm-none-eabi-10.3-2021.10/bin/../lib/gcc/arm-none-eabi/10.3.1/../../../../arm-none-eabi/lib/thumb/v7e-m+fp/hard/libc_nano.a(lib_a-exit.o)
 .text          0x0000000000000000        0x0 /home/neuberfran/neuber/gcc-arm-none-eabi-10.3-2021.10/bin/../lib/gcc/arm-none-eabi/10.3.1/../../../../arm-none-eabi/lib/thumb/v7e-m+fp/hard/libc_nano.a(lib_a-fprintf.o)
 .data          0x0000000000000000        0x0 /home/neuberfran/neuber/gcc-arm-none-eabi-10.3-2021.10/bin/../lib/gcc/arm-none-eabi/10.3.1/../../../../arm-none-eabi/lib/thumb/v7e-m+fp/hard/libc_nano.a(lib_a-fprintf.o)
 .bss           0x0000000000000000        0x0 /home/neuberfran/neuber/gcc-arm-none-eabi-10.3-2021.10/bin/../lib/gcc/arm-none-eabi/10.3.1/../../../../arm-none-eabi/lib/thumb/v7e-m+fp/hard/libc_nano.a(lib_a-fprintf.o)
 .text._fprintf_r
                0x0000000000000000       0x1a /home/neuberfran/neuber/gcc-arm-none-eabi-10.3-2021.10/bin/../lib/gcc/arm-none-eabi/10.3.1/../../../../arm-none-eabi/lib/thumb/v7e-m+fp/hard/libc_nano.a(lib_a-fprintf.o)
 .text          0x0000000000000000        0x0 /home/neuberfran/neuber/gcc-arm-none-eabi-10.3-2021.10/bin/../lib/gcc/arm-none-eabi/10.3.1/../../../../arm-none-eabi/lib/thumb/v7e-m+fp/hard/libc_nano.a(lib_a-impure.o)
 .data          0x0000000000000000        0x0 /home/neuberfran/neuber/gcc-arm-none-eabi-10.3-2021.10/bin/../lib/gcc/arm-none-eabi/10.3.1/../../../../arm-none-eabi/lib/thumb/v7e-m+fp/hard/libc_nano.a(lib_a-impure.o)
 .bss           0x0000000000000000        0x0 /home/neuberfran/neuber/gcc-arm-none-eabi-10.3-2021.10/bin/../lib/gcc/arm-none-eabi/10.3.1/../../../../arm-none-eabi/lib/thumb/v7e-m+fp/hard/libc_nano.a(lib_a-impure.o)
 .text          0x0000000000000000        0x0 /home/neuberfran/neuber/gcc-arm-none-eabi-10.3-2021.10/bin/../lib/gcc/arm-none-eabi/10.3.1/../../../../arm-none-eabi/lib/thumb/v7e-m+fp/hard/libc_nano.a(lib_a-init.o)
 .data          0x0000000000000000        0x0 /home/neuberfran/neuber/gcc-arm-none-eabi-10.3-2021.10/bin/../lib/gcc/arm-none-eabi/10.3.1/../../../../arm-none-eabi/lib/thumb/v7e-m+fp/hard/libc_nano.a(lib_a-init.o)
 .bss           0x0000000000000000        0x0 /home/neuberfran/neuber/gcc-arm-none-eabi-10.3-2021.10/bin/../lib/gcc/arm-none-eabi/10.3.1/../../../../arm-none-eabi/lib/thumb/v7e-m+fp/hard/libc_nano.a(lib_a-init.o)
 .text          0x0000000000000000        0x0 /home/neuberfran/neuber/gcc-arm-none-eabi-10.3-2021.10/bin/../lib/gcc/arm-none-eabi/10.3.1/../../../../arm-none-eabi/lib/thumb/v7e-m+fp/hard/libc_nano.a(lib_a-memcpy-stub.o)
 .data          0x0000000000000000        0x0 /home/neuberfran/neuber/gcc-arm-none-eabi-10.3-2021.10/bin/../lib/gcc/arm-none-eabi/10.3.1/../../../../arm-none-eabi/lib/thumb/v7e-m+fp/hard/libc_nano.a(lib_a-memcpy-stub.o)
 .bss           0x0000000000000000        0x0 /home/neuberfran/neuber/gcc-arm-none-eabi-10.3-2021.10/bin/../lib/gcc/arm-none-eabi/10.3.1/../../../../arm-none-eabi/lib/thumb/v7e-m+fp/hard/libc_nano.a(lib_a-memcpy-stub.o)
 .text          0x0000000000000000        0x0 /home/neuberfran/neuber/gcc-arm-none-eabi-10.3-2021.10/bin/../lib/gcc/arm-none-eabi/10.3.1/../../../../arm-none-eabi/lib/thumb/v7e-m+fp/hard/libc_nano.a(lib_a-memset.o)
 .data          0x0000000000000000        0x0 /home/neuberfran/neuber/gcc-arm-none-eabi-10.3-2021.10/bin/../lib/gcc/arm-none-eabi/10.3.1/../../../../arm-none-eabi/lib/thumb/v7e-m+fp/hard/libc_nano.a(lib_a-memset.o)
 .bss           0x0000000000000000        0x0 /home/neuberfran/neuber/gcc-arm-none-eabi-10.3-2021.10/bin/../lib/gcc/arm-none-eabi/10.3.1/../../../../arm-none-eabi/lib/thumb/v7e-m+fp/hard/libc_nano.a(lib_a-memset.o)
 .text          0x0000000000000000        0x0 /home/neuberfran/neuber/gcc-arm-none-eabi-10.3-2021.10/bin/../lib/gcc/arm-none-eabi/10.3.1/../../../../arm-none-eabi/lib/thumb/v7e-m+fp/hard/libc_nano.a(lib_a-nano-vfprintf.o)
 .data          0x0000000000000000        0x0 /home/neuberfran/neuber/gcc-arm-none-eabi-10.3-2021.10/bin/../lib/gcc/arm-none-eabi/10.3.1/../../../../arm-none-eabi/lib/thumb/v7e-m+fp/hard/libc_nano.a(lib_a-nano-vfprintf.o)
 .bss           0x0000000000000000        0x0 /home/neuberfran/neuber/gcc-arm-none-eabi-10.3-2021.10/bin/../lib/gcc/arm-none-eabi/10.3.1/../../../../arm-none-eabi/lib/thumb/v7e-m+fp/hard/libc_nano.a(lib_a-nano-vfprintf.o)
 .text.__sprint_r
                0x0000000000000000       0x1a /home/neuberfran/neuber/gcc-arm-none-eabi-10.3-2021.10/bin/../lib/gcc/arm-none-eabi/10.3.1/../../../../arm-none-eabi/lib/thumb/v7e-m+fp/hard/libc_nano.a(lib_a-nano-vfprintf.o)
 .text.vfprintf
                0x0000000000000000       0x14 /home/neuberfran/neuber/gcc-arm-none-eabi-10.3-2021.10/bin/../lib/gcc/arm-none-eabi/10.3.1/../../../../arm-none-eabi/lib/thumb/v7e-m+fp/hard/libc_nano.a(lib_a-nano-vfprintf.o)
 .text          0x0000000000000000        0x0 /home/neuberfran/neuber/gcc-arm-none-eabi-10.3-2021.10/bin/../lib/gcc/arm-none-eabi/10.3.1/../../../../arm-none-eabi/lib/thumb/v7e-m+fp/hard/libc_nano.a(lib_a-nano-vfprintf_i.o)
 .data          0x0000000000000000        0x0 /home/neuberfran/neuber/gcc-arm-none-eabi-10.3-2021.10/bin/../lib/gcc/arm-none-eabi/10.3.1/../../../../arm-none-eabi/lib/thumb/v7e-m+fp/hard/libc_nano.a(lib_a-nano-vfprintf_i.o)
 .bss           0x0000000000000000        0x0 /home/neuberfran/neuber/gcc-arm-none-eabi-10.3-2021.10/bin/../lib/gcc/arm-none-eabi/10.3.1/../../../../arm-none-eabi/lib/thumb/v7e-m+fp/hard/libc_nano.a(lib_a-nano-vfprintf_i.o)
 .text          0x0000000000000000       0x14 /home/neuberfran/neuber/gcc-arm-none-eabi-10.3-2021.10/bin/../lib/gcc/arm-none-eabi/10.3.1/../../../../arm-none-eabi/lib/thumb/v7e-m+fp/hard/libc_nano.a(lib_a-strcmp.o)
 .data          0x0000000000000000        0x0 /home/neuberfran/neuber/gcc-arm-none-eabi-10.3-2021.10/bin/../lib/gcc/arm-none-eabi/10.3.1/../../../../arm-none-eabi/lib/thumb/v7e-m+fp/hard/libc_nano.a(lib_a-strcmp.o)
 .bss           0x0000000000000000        0x0 /home/neuberfran/neuber/gcc-arm-none-eabi-10.3-2021.10/bin/../lib/gcc/arm-none-eabi/10.3.1/../../../../arm-none-eabi/lib/thumb/v7e-m+fp/hard/libc_nano.a(lib_a-strcmp.o)
 .debug_frame   0x0000000000000000       0x20 /home/neuberfran/neuber/gcc-arm-none-eabi-10.3-2021.10/bin/../lib/gcc/arm-none-eabi/10.3.1/../../../../arm-none-eabi/lib/thumb/v7e-m+fp/hard/libc_nano.a(lib_a-strcmp.o)
 .ARM.attributes
                0x0000000000000000       0x1c /home/neuberfran/neuber/gcc-arm-none-eabi-10.3-2021.10/bin/../lib/gcc/arm-none-eabi/10.3.1/../../../../arm-none-eabi/lib/thumb/v7e-m+fp/hard/libc_nano.a(lib_a-strcmp.o)
 .data          0x0000000000000000        0x0 /home/neuberfran/neuber/gcc-arm-none-eabi-10.3-2021.10/bin/../lib/gcc/arm-none-eabi/10.3.1/../../../../arm-none-eabi/lib/thumb/v7e-m+fp/hard/libc_nano.a(lib_a-strlen.o)
 .bss           0x0000000000000000        0x0 /home/neuberfran/neuber/gcc-arm-none-eabi-10.3-2021.10/bin/../lib/gcc/arm-none-eabi/10.3.1/../../../../arm-none-eabi/lib/thumb/v7e-m+fp/hard/libc_nano.a(lib_a-strlen.o)
 .text          0x0000000000000000        0x0 /home/neuberfran/neuber/gcc-arm-none-eabi-10.3-2021.10/bin/../lib/gcc/arm-none-eabi/10.3.1/../../../../arm-none-eabi/lib/thumb/v7e-m+fp/hard/libc_nano.a(lib_a-strncmp.o)
 .data          0x0000000000000000        0x0 /home/neuberfran/neuber/gcc-arm-none-eabi-10.3-2021.10/bin/../lib/gcc/arm-none-eabi/10.3.1/../../../../arm-none-eabi/lib/thumb/v7e-m+fp/hard/libc_nano.a(lib_a-strncmp.o)
 .bss           0x0000000000000000        0x0 /home/neuberfran/neuber/gcc-arm-none-eabi-10.3-2021.10/bin/../lib/gcc/arm-none-eabi/10.3.1/../../../../arm-none-eabi/lib/thumb/v7e-m+fp/hard/libc_nano.a(lib_a-strncmp.o)
 .text          0x0000000000000000        0x0 /home/neuberfran/neuber/gcc-arm-none-eabi-10.3-2021.10/bin/../lib/gcc/arm-none-eabi/10.3.1/../../../../arm-none-eabi/lib/thumb/v7e-m+fp/hard/libc_nano.a(lib_a-strncpy.o)
 .data          0x0000000000000000        0x0 /home/neuberfran/neuber/gcc-arm-none-eabi-10.3-2021.10/bin/../lib/gcc/arm-none-eabi/10.3.1/../../../../arm-none-eabi/lib/thumb/v7e-m+fp/hard/libc_nano.a(lib_a-strncpy.o)
 .bss           0x0000000000000000        0x0 /home/neuberfran/neuber/gcc-arm-none-eabi-10.3-2021.10/bin/../lib/gcc/arm-none-eabi/10.3.1/../../../../arm-none-eabi/lib/thumb/v7e-m+fp/hard/libc_nano.a(lib_a-strncpy.o)
 .text          0x0000000000000000        0x0 /home/neuberfran/neuber/gcc-arm-none-eabi-10.3-2021.10/bin/../lib/gcc/arm-none-eabi/10.3.1/../../../../arm-none-eabi/lib/thumb/v7e-m+fp/hard/libc_nano.a(lib_a-wbuf.o)
 .data          0x0000000000000000        0x0 /home/neuberfran/neuber/gcc-arm-none-eabi-10.3-2021.10/bin/../lib/gcc/arm-none-eabi/10.3.1/../../../../arm-none-eabi/lib/thumb/v7e-m+fp/hard/libc_nano.a(lib_a-wbuf.o)
 .bss           0x0000000000000000        0x0 /home/neuberfran/neuber/gcc-arm-none-eabi-10.3-2021.10/bin/../lib/gcc/arm-none-eabi/10.3.1/../../../../arm-none-eabi/lib/thumb/v7e-m+fp/hard/libc_nano.a(lib_a-wbuf.o)
 .text.__swbuf  0x0000000000000000       0x10 /home/neuberfran/neuber/gcc-arm-none-eabi-10.3-2021.10/bin/../lib/gcc/arm-none-eabi/10.3.1/../../../../arm-none-eabi/lib/thumb/v7e-m+fp/hard/libc_nano.a(lib_a-wbuf.o)
 .text          0x0000000000000000        0x0 /home/neuberfran/neuber/gcc-arm-none-eabi-10.3-2021.10/bin/../lib/gcc/arm-none-eabi/10.3.1/../../../../arm-none-eabi/lib/thumb/v7e-m+fp/hard/libc_nano.a(lib_a-wsetup.o)
 .data          0x0000000000000000        0x0 /home/neuberfran/neuber/gcc-arm-none-eabi-10.3-2021.10/bin/../lib/gcc/arm-none-eabi/10.3.1/../../../../arm-none-eabi/lib/thumb/v7e-m+fp/hard/libc_nano.a(lib_a-wsetup.o)
 .bss           0x0000000000000000        0x0 /home/neuberfran/neuber/gcc-arm-none-eabi-10.3-2021.10/bin/../lib/gcc/arm-none-eabi/10.3.1/../../../../arm-none-eabi/lib/thumb/v7e-m+fp/hard/libc_nano.a(lib_a-wsetup.o)
 .text          0x0000000000000000        0x0 /home/neuberfran/neuber/gcc-arm-none-eabi-10.3-2021.10/bin/../lib/gcc/arm-none-eabi/10.3.1/../../../../arm-none-eabi/lib/thumb/v7e-m+fp/hard/libc_nano.a(lib_a-abort.o)
 .data          0x0000000000000000        0x0 /home/neuberfran/neuber/gcc-arm-none-eabi-10.3-2021.10/bin/../lib/gcc/arm-none-eabi/10.3.1/../../../../arm-none-eabi/lib/thumb/v7e-m+fp/hard/libc_nano.a(lib_a-abort.o)
 .bss           0x0000000000000000        0x0 /home/neuberfran/neuber/gcc-arm-none-eabi-10.3-2021.10/bin/../lib/gcc/arm-none-eabi/10.3.1/../../../../arm-none-eabi/lib/thumb/v7e-m+fp/hard/libc_nano.a(lib_a-abort.o)
 .text          0x0000000000000000        0x0 /home/neuberfran/neuber/gcc-arm-none-eabi-10.3-2021.10/bin/../lib/gcc/arm-none-eabi/10.3.1/../../../../arm-none-eabi/lib/thumb/v7e-m+fp/hard/libc_nano.a(lib_a-fflush.o)
 .data          0x0000000000000000        0x0 /home/neuberfran/neuber/gcc-arm-none-eabi-10.3-2021.10/bin/../lib/gcc/arm-none-eabi/10.3.1/../../../../arm-none-eabi/lib/thumb/v7e-m+fp/hard/libc_nano.a(lib_a-fflush.o)
 .bss           0x0000000000000000        0x0 /home/neuberfran/neuber/gcc-arm-none-eabi-10.3-2021.10/bin/../lib/gcc/arm-none-eabi/10.3.1/../../../../arm-none-eabi/lib/thumb/v7e-m+fp/hard/libc_nano.a(lib_a-fflush.o)
 .text.fflush   0x0000000000000000       0x24 /home/neuberfran/neuber/gcc-arm-none-eabi-10.3-2021.10/bin/../lib/gcc/arm-none-eabi/10.3.1/../../../../arm-none-eabi/lib/thumb/v7e-m+fp/hard/libc_nano.a(lib_a-fflush.o)
 .text          0x0000000000000000        0x0 /home/neuberfran/neuber/gcc-arm-none-eabi-10.3-2021.10/bin/../lib/gcc/arm-none-eabi/10.3.1/../../../../arm-none-eabi/lib/thumb/v7e-m+fp/hard/libc_nano.a(lib_a-findfp.o)
 .data          0x0000000000000000        0x0 /home/neuberfran/neuber/gcc-arm-none-eabi-10.3-2021.10/bin/../lib/gcc/arm-none-eabi/10.3.1/../../../../arm-none-eabi/lib/thumb/v7e-m+fp/hard/libc_nano.a(lib_a-findfp.o)
 .bss           0x0000000000000000        0x0 /home/neuberfran/neuber/gcc-arm-none-eabi-10.3-2021.10/bin/../lib/gcc/arm-none-eabi/10.3.1/../../../../arm-none-eabi/lib/thumb/v7e-m+fp/hard/libc_nano.a(lib_a-findfp.o)
 .text.__fp_lock
                0x0000000000000000       0x18 /home/neuberfran/neuber/gcc-arm-none-eabi-10.3-2021.10/bin/../lib/gcc/arm-none-eabi/10.3.1/../../../../arm-none-eabi/lib/thumb/v7e-m+fp/hard/libc_nano.a(lib_a-findfp.o)
 .text.__fp_unlock
                0x0000000000000000       0x18 /home/neuberfran/neuber/gcc-arm-none-eabi-10.3-2021.10/bin/../lib/gcc/arm-none-eabi/10.3.1/../../../../arm-none-eabi/lib/thumb/v7e-m+fp/hard/libc_nano.a(lib_a-findfp.o)
 .text._cleanup
                0x0000000000000000        0xc /home/neuberfran/neuber/gcc-arm-none-eabi-10.3-2021.10/bin/../lib/gcc/arm-none-eabi/10.3.1/../../../../arm-none-eabi/lib/thumb/v7e-m+fp/hard/libc_nano.a(lib_a-findfp.o)
 .text.__fp_lock_all
                0x0000000000000000       0x1c /home/neuberfran/neuber/gcc-arm-none-eabi-10.3-2021.10/bin/../lib/gcc/arm-none-eabi/10.3.1/../../../../arm-none-eabi/lib/thumb/v7e-m+fp/hard/libc_nano.a(lib_a-findfp.o)
 .text.__fp_unlock_all
                0x0000000000000000       0x1c /home/neuberfran/neuber/gcc-arm-none-eabi-10.3-2021.10/bin/../lib/gcc/arm-none-eabi/10.3.1/../../../../arm-none-eabi/lib/thumb/v7e-m+fp/hard/libc_nano.a(lib_a-findfp.o)
 .text          0x0000000000000000        0x0 /home/neuberfran/neuber/gcc-arm-none-eabi-10.3-2021.10/bin/../lib/gcc/arm-none-eabi/10.3.1/../../../../arm-none-eabi/lib/thumb/v7e-m+fp/hard/libc_nano.a(lib_a-fvwrite.o)
 .data          0x0000000000000000        0x0 /home/neuberfran/neuber/gcc-arm-none-eabi-10.3-2021.10/bin/../lib/gcc/arm-none-eabi/10.3.1/../../../../arm-none-eabi/lib/thumb/v7e-m+fp/hard/libc_nano.a(lib_a-fvwrite.o)
 .bss           0x0000000000000000        0x0 /home/neuberfran/neuber/gcc-arm-none-eabi-10.3-2021.10/bin/../lib/gcc/arm-none-eabi/10.3.1/../../../../arm-none-eabi/lib/thumb/v7e-m+fp/hard/libc_nano.a(lib_a-fvwrite.o)
 .text.__sfvwrite_r
                0x0000000000000000      0x294 /home/neuberfran/neuber/gcc-arm-none-eabi-10.3-2021.10/bin/../lib/gcc/arm-none-eabi/10.3.1/../../../../arm-none-eabi/lib/thumb/v7e-m+fp/hard/libc_nano.a(lib_a-fvwrite.o)
 .debug_frame   0x0000000000000000       0x3c /home/neuberfran/neuber/gcc-arm-none-eabi-10.3-2021.10/bin/../lib/gcc/arm-none-eabi/10.3.1/../../../../arm-none-eabi/lib/thumb/v7e-m+fp/hard/libc_nano.a(lib_a-fvwrite.o)
 .ARM.attributes
                0x0000000000000000       0x34 /home/neuberfran/neuber/gcc-arm-none-eabi-10.3-2021.10/bin/../lib/gcc/arm-none-eabi/10.3.1/../../../../arm-none-eabi/lib/thumb/v7e-m+fp/hard/libc_nano.a(lib_a-fvwrite.o)
 .text          0x0000000000000000        0x0 /home/neuberfran/neuber/gcc-arm-none-eabi-10.3-2021.10/bin/../lib/gcc/arm-none-eabi/10.3.1/../../../../arm-none-eabi/lib/thumb/v7e-m+fp/hard/libc_nano.a(lib_a-fwalk.o)
 .data          0x0000000000000000        0x0 /home/neuberfran/neuber/gcc-arm-none-eabi-10.3-2021.10/bin/../lib/gcc/arm-none-eabi/10.3.1/../../../../arm-none-eabi/lib/thumb/v7e-m+fp/hard/libc_nano.a(lib_a-fwalk.o)
 .bss           0x0000000000000000        0x0 /home/neuberfran/neuber/gcc-arm-none-eabi-10.3-2021.10/bin/../lib/gcc/arm-none-eabi/10.3.1/../../../../arm-none-eabi/lib/thumb/v7e-m+fp/hard/libc_nano.a(lib_a-fwalk.o)
 .text._fwalk   0x0000000000000000       0x3a /home/neuberfran/neuber/gcc-arm-none-eabi-10.3-2021.10/bin/../lib/gcc/arm-none-eabi/10.3.1/../../../../arm-none-eabi/lib/thumb/v7e-m+fp/hard/libc_nano.a(lib_a-fwalk.o)
 .text          0x0000000000000000        0x0 /home/neuberfran/neuber/gcc-arm-none-eabi-10.3-2021.10/bin/../lib/gcc/arm-none-eabi/10.3.1/../../../../arm-none-eabi/lib/thumb/v7e-m+fp/hard/libc_nano.a(lib_a-lock.o)
 .data          0x0000000000000000        0x0 /home/neuberfran/neuber/gcc-arm-none-eabi-10.3-2021.10/bin/../lib/gcc/arm-none-eabi/10.3.1/../../../../arm-none-eabi/lib/thumb/v7e-m+fp/hard/libc_nano.a(lib_a-lock.o)
 .bss           0x0000000000000000        0x0 /home/neuberfran/neuber/gcc-arm-none-eabi-10.3-2021.10/bin/../lib/gcc/arm-none-eabi/10.3.1/../../../../arm-none-eabi/lib/thumb/v7e-m+fp/hard/libc_nano.a(lib_a-lock.o)
 .text.__retarget_lock_init
                0x0000000000000000        0x2 /home/neuberfran/neuber/gcc-arm-none-eabi-10.3-2021.10/bin/../lib/gcc/arm-none-eabi/10.3.1/../../../../arm-none-eabi/lib/thumb/v7e-m+fp/hard/libc_nano.a(lib_a-lock.o)
 .text.__retarget_lock_close
                0x0000000000000000        0x2 /home/neuberfran/neuber/gcc-arm-none-eabi-10.3-2021.10/bin/../lib/gcc/arm-none-eabi/10.3.1/../../../../arm-none-eabi/lib/thumb/v7e-m+fp/hard/libc_nano.a(lib_a-lock.o)
 .text.__retarget_lock_close_recursive
                0x0000000000000000        0x2 /home/neuberfran/neuber/gcc-arm-none-eabi-10.3-2021.10/bin/../lib/gcc/arm-none-eabi/10.3.1/../../../../arm-none-eabi/lib/thumb/v7e-m+fp/hard/libc_nano.a(lib_a-lock.o)
 .text.__retarget_lock_acquire
                0x0000000000000000        0x2 /home/neuberfran/neuber/gcc-arm-none-eabi-10.3-2021.10/bin/../lib/gcc/arm-none-eabi/10.3.1/../../../../arm-none-eabi/lib/thumb/v7e-m+fp/hard/libc_nano.a(lib_a-lock.o)
 .text.__retarget_lock_try_acquire
                0x0000000000000000        0x4 /home/neuberfran/neuber/gcc-arm-none-eabi-10.3-2021.10/bin/../lib/gcc/arm-none-eabi/10.3.1/../../../../arm-none-eabi/lib/thumb/v7e-m+fp/hard/libc_nano.a(lib_a-lock.o)
 .text.__retarget_lock_try_acquire_recursive
                0x0000000000000000        0x4 /home/neuberfran/neuber/gcc-arm-none-eabi-10.3-2021.10/bin/../lib/gcc/arm-none-eabi/10.3.1/../../../../arm-none-eabi/lib/thumb/v7e-m+fp/hard/libc_nano.a(lib_a-lock.o)
 .text.__retarget_lock_release
                0x0000000000000000        0x2 /home/neuberfran/neuber/gcc-arm-none-eabi-10.3-2021.10/bin/../lib/gcc/arm-none-eabi/10.3.1/../../../../arm-none-eabi/lib/thumb/v7e-m+fp/hard/libc_nano.a(lib_a-lock.o)
 .bss.__lock___arc4random_mutex
                0x0000000000000000        0x1 /home/neuberfran/neuber/gcc-arm-none-eabi-10.3-2021.10/bin/../lib/gcc/arm-none-eabi/10.3.1/../../../../arm-none-eabi/lib/thumb/v7e-m+fp/hard/libc_nano.a(lib_a-lock.o)
 .bss.__lock___at_quick_exit_mutex
                0x0000000000000000        0x1 /home/neuberfran/neuber/gcc-arm-none-eabi-10.3-2021.10/bin/../lib/gcc/arm-none-eabi/10.3.1/../../../../arm-none-eabi/lib/thumb/v7e-m+fp/hard/libc_nano.a(lib_a-lock.o)
 .bss.__lock___atexit_recursive_mutex
                0x0000000000000000        0x1 /home/neuberfran/neuber/gcc-arm-none-eabi-10.3-2021.10/bin/../lib/gcc/arm-none-eabi/10.3.1/../../../../arm-none-eabi/lib/thumb/v7e-m+fp/hard/libc_nano.a(lib_a-lock.o)
 .bss.__lock___dd_hash_mutex
                0x0000000000000000        0x1 /home/neuberfran/neuber/gcc-arm-none-eabi-10.3-2021.10/bin/../lib/gcc/arm-none-eabi/10.3.1/../../../../arm-none-eabi/lib/thumb/v7e-m+fp/hard/libc_nano.a(lib_a-lock.o)
 .bss.__lock___env_recursive_mutex
                0x0000000000000000        0x1 /home/neuberfran/neuber/gcc-arm-none-eabi-10.3-2021.10/bin/../lib/gcc/arm-none-eabi/10.3.1/../../../../arm-none-eabi/lib/thumb/v7e-m+fp/hard/libc_nano.a(lib_a-lock.o)
 .bss.__lock___tz_mutex
                0x0000000000000000        0x1 /home/neuberfran/neuber/gcc-arm-none-eabi-10.3-2021.10/bin/../lib/gcc/arm-none-eabi/10.3.1/../../../../arm-none-eabi/lib/thumb/v7e-m+fp/hard/libc_nano.a(lib_a-lock.o)
 .text          0x0000000000000000        0x0 /home/neuberfran/neuber/gcc-arm-none-eabi-10.3-2021.10/bin/../lib/gcc/arm-none-eabi/10.3.1/../../../../arm-none-eabi/lib/thumb/v7e-m+fp/hard/libc_nano.a(lib_a-makebuf.o)
 .data          0x0000000000000000        0x0 /home/neuberfran/neuber/gcc-arm-none-eabi-10.3-2021.10/bin/../lib/gcc/arm-none-eabi/10.3.1/../../../../arm-none-eabi/lib/thumb/v7e-m+fp/hard/libc_nano.a(lib_a-makebuf.o)
 .bss           0x0000000000000000        0x0 /home/neuberfran/neuber/gcc-arm-none-eabi-10.3-2021.10/bin/../lib/gcc/arm-none-eabi/10.3.1/../../../../arm-none-eabi/lib/thumb/v7e-m+fp/hard/libc_nano.a(lib_a-makebuf.o)
 .data          0x0000000000000000        0x0 /home/neuberfran/neuber/gcc-arm-none-eabi-10.3-2021.10/bin/../lib/gcc/arm-none-eabi/10.3.1/../../../../arm-none-eabi/lib/thumb/v7e-m+fp/hard/libc_nano.a(lib_a-memchr.o)
 .bss           0x0000000000000000        0x0 /home/neuberfran/neuber/gcc-arm-none-eabi-10.3-2021.10/bin/../lib/gcc/arm-none-eabi/10.3.1/../../../../arm-none-eabi/lib/thumb/v7e-m+fp/hard/libc_nano.a(lib_a-memchr.o)
 .text          0x0000000000000000        0x0 /home/neuberfran/neuber/gcc-arm-none-eabi-10.3-2021.10/bin/../lib/gcc/arm-none-eabi/10.3.1/../../../../arm-none-eabi/lib/thumb/v7e-m+fp/hard/libc_nano.a(lib_a-memmove.o)
 .data          0x0000000000000000        0x0 /home/neuberfran/neuber/gcc-arm-none-eabi-10.3-2021.10/bin/../lib/gcc/arm-none-eabi/10.3.1/../../../../arm-none-eabi/lib/thumb/v7e-m+fp/hard/libc_nano.a(lib_a-memmove.o)
 .bss           0x0000000000000000        0x0 /home/neuberfran/neuber/gcc-arm-none-eabi-10.3-2021.10/bin/../lib/gcc/arm-none-eabi/10.3.1/../../../../arm-none-eabi/lib/thumb/v7e-m+fp/hard/libc_nano.a(lib_a-memmove.o)
 .text.memmove  0x0000000000000000       0x34 /home/neuberfran/neuber/gcc-arm-none-eabi-10.3-2021.10/bin/../lib/gcc/arm-none-eabi/10.3.1/../../../../arm-none-eabi/lib/thumb/v7e-m+fp/hard/libc_nano.a(lib_a-memmove.o)
 .debug_frame   0x0000000000000000       0x28 /home/neuberfran/neuber/gcc-arm-none-eabi-10.3-2021.10/bin/../lib/gcc/arm-none-eabi/10.3.1/../../../../arm-none-eabi/lib/thumb/v7e-m+fp/hard/libc_nano.a(lib_a-memmove.o)
 .ARM.attributes
                0x0000000000000000       0x34 /home/neuberfran/neuber/gcc-arm-none-eabi-10.3-2021.10/bin/../lib/gcc/arm-none-eabi/10.3.1/../../../../arm-none-eabi/lib/thumb/v7e-m+fp/hard/libc_nano.a(lib_a-memmove.o)
 .text          0x0000000000000000        0x0 /home/neuberfran/neuber/gcc-arm-none-eabi-10.3-2021.10/bin/../lib/gcc/arm-none-eabi/10.3.1/../../../../arm-none-eabi/lib/thumb/v7e-m+fp/hard/libc_nano.a(lib_a-nano-freer.o)
 .data          0x0000000000000000        0x0 /home/neuberfran/neuber/gcc-arm-none-eabi-10.3-2021.10/bin/../lib/gcc/arm-none-eabi/10.3.1/../../../../arm-none-eabi/lib/thumb/v7e-m+fp/hard/libc_nano.a(lib_a-nano-freer.o)
 .bss           0x0000000000000000        0x0 /home/neuberfran/neuber/gcc-arm-none-eabi-10.3-2021.10/bin/../lib/gcc/arm-none-eabi/10.3.1/../../../../arm-none-eabi/lib/thumb/v7e-m+fp/hard/libc_nano.a(lib_a-nano-freer.o)
 .text          0x0000000000000000        0x0 /home/neuberfran/neuber/gcc-arm-none-eabi-10.3-2021.10/bin/../lib/gcc/arm-none-eabi/10.3.1/../../../../arm-none-eabi/lib/thumb/v7e-m+fp/hard/libc_nano.a(lib_a-nano-mallocr.o)
 .data          0x0000000000000000        0x0 /home/neuberfran/neuber/gcc-arm-none-eabi-10.3-2021.10/bin/../lib/gcc/arm-none-eabi/10.3.1/../../../../arm-none-eabi/lib/thumb/v7e-m+fp/hard/libc_nano.a(lib_a-nano-mallocr.o)
 .bss           0x0000000000000000        0x0 /home/neuberfran/neuber/gcc-arm-none-eabi-10.3-2021.10/bin/../lib/gcc/arm-none-eabi/10.3.1/../../../../arm-none-eabi/lib/thumb/v7e-m+fp/hard/libc_nano.a(lib_a-nano-mallocr.o)
 .text          0x0000000000000000        0x0 /home/neuberfran/neuber/gcc-arm-none-eabi-10.3-2021.10/bin/../lib/gcc/arm-none-eabi/10.3.1/../../../../arm-none-eabi/lib/thumb/v7e-m+fp/hard/libc_nano.a(lib_a-nano-reallocr.o)
 .data          0x0000000000000000        0x0 /home/neuberfran/neuber/gcc-arm-none-eabi-10.3-2021.10/bin/../lib/gcc/arm-none-eabi/10.3.1/../../../../arm-none-eabi/lib/thumb/v7e-m+fp/hard/libc_nano.a(lib_a-nano-reallocr.o)
 .bss           0x0000000000000000        0x0 /home/neuberfran/neuber/gcc-arm-none-eabi-10.3-2021.10/bin/../lib/gcc/arm-none-eabi/10.3.1/../../../../arm-none-eabi/lib/thumb/v7e-m+fp/hard/libc_nano.a(lib_a-nano-reallocr.o)
 .text._realloc_r
                0x0000000000000000       0x5e /home/neuberfran/neuber/gcc-arm-none-eabi-10.3-2021.10/bin/../lib/gcc/arm-none-eabi/10.3.1/../../../../arm-none-eabi/lib/thumb/v7e-m+fp/hard/libc_nano.a(lib_a-nano-reallocr.o)
 .debug_frame   0x0000000000000000       0x3c /home/neuberfran/neuber/gcc-arm-none-eabi-10.3-2021.10/bin/../lib/gcc/arm-none-eabi/10.3.1/../../../../arm-none-eabi/lib/thumb/v7e-m+fp/hard/libc_nano.a(lib_a-nano-reallocr.o)
 .ARM.attributes
                0x0000000000000000       0x34 /home/neuberfran/neuber/gcc-arm-none-eabi-10.3-2021.10/bin/../lib/gcc/arm-none-eabi/10.3.1/../../../../arm-none-eabi/lib/thumb/v7e-m+fp/hard/libc_nano.a(lib_a-nano-reallocr.o)
 .text          0x0000000000000000        0x0 /home/neuberfran/neuber/gcc-arm-none-eabi-10.3-2021.10/bin/../lib/gcc/arm-none-eabi/10.3.1/../../../../arm-none-eabi/lib/thumb/v7e-m+fp/hard/libc_nano.a(lib_a-sbrkr.o)
 .data          0x0000000000000000        0x0 /home/neuberfran/neuber/gcc-arm-none-eabi-10.3-2021.10/bin/../lib/gcc/arm-none-eabi/10.3.1/../../../../arm-none-eabi/lib/thumb/v7e-m+fp/hard/libc_nano.a(lib_a-sbrkr.o)
 .bss           0x0000000000000000        0x0 /home/neuberfran/neuber/gcc-arm-none-eabi-10.3-2021.10/bin/../lib/gcc/arm-none-eabi/10.3.1/../../../../arm-none-eabi/lib/thumb/v7e-m+fp/hard/libc_nano.a(lib_a-sbrkr.o)
 .text          0x0000000000000000        0x0 /home/neuberfran/neuber/gcc-arm-none-eabi-10.3-2021.10/bin/../lib/gcc/arm-none-eabi/10.3.1/../../../../arm-none-eabi/lib/thumb/v7e-m+fp/hard/libc_nano.a(lib_a-signal.o)
 .data          0x0000000000000000        0x0 /home/neuberfran/neuber/gcc-arm-none-eabi-10.3-2021.10/bin/../lib/gcc/arm-none-eabi/10.3.1/../../../../arm-none-eabi/lib/thumb/v7e-m+fp/hard/libc_nano.a(lib_a-signal.o)
 .bss           0x0000000000000000        0x0 /home/neuberfran/neuber/gcc-arm-none-eabi-10.3-2021.10/bin/../lib/gcc/arm-none-eabi/10.3.1/../../../../arm-none-eabi/lib/thumb/v7e-m+fp/hard/libc_nano.a(lib_a-signal.o)
 .text._init_signal_r
                0x0000000000000000       0x28 /home/neuberfran/neuber/gcc-arm-none-eabi-10.3-2021.10/bin/../lib/gcc/arm-none-eabi/10.3.1/../../../../arm-none-eabi/lib/thumb/v7e-m+fp/hard/libc_nano.a(lib_a-signal.o)
 .text._signal_r
                0x0000000000000000       0x30 /home/neuberfran/neuber/gcc-arm-none-eabi-10.3-2021.10/bin/../lib/gcc/arm-none-eabi/10.3.1/../../../../arm-none-eabi/lib/thumb/v7e-m+fp/hard/libc_nano.a(lib_a-signal.o)
 .text.__sigtramp_r
                0x0000000000000000       0x48 /home/neuberfran/neuber/gcc-arm-none-eabi-10.3-2021.10/bin/../lib/gcc/arm-none-eabi/10.3.1/../../../../arm-none-eabi/lib/thumb/v7e-m+fp/hard/libc_nano.a(lib_a-signal.o)
 .text.signal   0x0000000000000000       0x10 /home/neuberfran/neuber/gcc-arm-none-eabi-10.3-2021.10/bin/../lib/gcc/arm-none-eabi/10.3.1/../../../../arm-none-eabi/lib/thumb/v7e-m+fp/hard/libc_nano.a(lib_a-signal.o)
 .text._init_signal
                0x0000000000000000        0xc /home/neuberfran/neuber/gcc-arm-none-eabi-10.3-2021.10/bin/../lib/gcc/arm-none-eabi/10.3.1/../../../../arm-none-eabi/lib/thumb/v7e-m+fp/hard/libc_nano.a(lib_a-signal.o)
 .text.__sigtramp
                0x0000000000000000       0x10 /home/neuberfran/neuber/gcc-arm-none-eabi-10.3-2021.10/bin/../lib/gcc/arm-none-eabi/10.3.1/../../../../arm-none-eabi/lib/thumb/v7e-m+fp/hard/libc_nano.a(lib_a-signal.o)
 .text          0x0000000000000000        0x0 /home/neuberfran/neuber/gcc-arm-none-eabi-10.3-2021.10/bin/../lib/gcc/arm-none-eabi/10.3.1/../../../../arm-none-eabi/lib/thumb/v7e-m+fp/hard/libc_nano.a(lib_a-signalr.o)
 .data          0x0000000000000000        0x0 /home/neuberfran/neuber/gcc-arm-none-eabi-10.3-2021.10/bin/../lib/gcc/arm-none-eabi/10.3.1/../../../../arm-none-eabi/lib/thumb/v7e-m+fp/hard/libc_nano.a(lib_a-signalr.o)
 .bss           0x0000000000000000        0x0 /home/neuberfran/neuber/gcc-arm-none-eabi-10.3-2021.10/bin/../lib/gcc/arm-none-eabi/10.3.1/../../../../arm-none-eabi/lib/thumb/v7e-m+fp/hard/libc_nano.a(lib_a-signalr.o)
 .text          0x0000000000000000        0x0 /home/neuberfran/neuber/gcc-arm-none-eabi-10.3-2021.10/bin/../lib/gcc/arm-none-eabi/10.3.1/../../../../arm-none-eabi/lib/thumb/v7e-m+fp/hard/libc_nano.a(lib_a-stdio.o)
 .data          0x0000000000000000        0x0 /home/neuberfran/neuber/gcc-arm-none-eabi-10.3-2021.10/bin/../lib/gcc/arm-none-eabi/10.3.1/../../../../arm-none-eabi/lib/thumb/v7e-m+fp/hard/libc_nano.a(lib_a-stdio.o)
 .bss           0x0000000000000000        0x0 /home/neuberfran/neuber/gcc-arm-none-eabi-10.3-2021.10/bin/../lib/gcc/arm-none-eabi/10.3.1/../../../../arm-none-eabi/lib/thumb/v7e-m+fp/hard/libc_nano.a(lib_a-stdio.o)
 .text.__seofread
                0x0000000000000000        0x4 /home/neuberfran/neuber/gcc-arm-none-eabi-10.3-2021.10/bin/../lib/gcc/arm-none-eabi/10.3.1/../../../../arm-none-eabi/lib/thumb/v7e-m+fp/hard/libc_nano.a(lib_a-stdio.o)
 .text          0x0000000000000000        0x0 /home/neuberfran/neuber/gcc-arm-none-eabi-10.3-2021.10/bin/../lib/gcc/arm-none-eabi/10.3.1/../../../../arm-none-eabi/lib/thumb/v7e-m+fp/hard/libc_nano.a(lib_a-writer.o)
 .data          0x0000000000000000        0x0 /home/neuberfran/neuber/gcc-arm-none-eabi-10.3-2021.10/bin/../lib/gcc/arm-none-eabi/10.3.1/../../../../arm-none-eabi/lib/thumb/v7e-m+fp/hard/libc_nano.a(lib_a-writer.o)
 .bss           0x0000000000000000        0x0 /home/neuberfran/neuber/gcc-arm-none-eabi-10.3-2021.10/bin/../lib/gcc/arm-none-eabi/10.3.1/../../../../arm-none-eabi/lib/thumb/v7e-m+fp/hard/libc_nano.a(lib_a-writer.o)
 .text          0x0000000000000000        0x0 /home/neuberfran/neuber/gcc-arm-none-eabi-10.3-2021.10/bin/../lib/gcc/arm-none-eabi/10.3.1/../../../../arm-none-eabi/lib/thumb/v7e-m+fp/hard/libc_nano.a(lib_a-closer.o)
 .data          0x0000000000000000        0x0 /home/neuberfran/neuber/gcc-arm-none-eabi-10.3-2021.10/bin/../lib/gcc/arm-none-eabi/10.3.1/../../../../arm-none-eabi/lib/thumb/v7e-m+fp/hard/libc_nano.a(lib_a-closer.o)
 .bss           0x0000000000000000        0x0 /home/neuberfran/neuber/gcc-arm-none-eabi-10.3-2021.10/bin/../lib/gcc/arm-none-eabi/10.3.1/../../../../arm-none-eabi/lib/thumb/v7e-m+fp/hard/libc_nano.a(lib_a-closer.o)
 .text          0x0000000000000000        0x0 /home/neuberfran/neuber/gcc-arm-none-eabi-10.3-2021.10/bin/../lib/gcc/arm-none-eabi/10.3.1/../../../../arm-none-eabi/lib/thumb/v7e-m+fp/hard/libc_nano.a(lib_a-fstatr.o)
 .data          0x0000000000000000        0x0 /home/neuberfran/neuber/gcc-arm-none-eabi-10.3-2021.10/bin/../lib/gcc/arm-none-eabi/10.3.1/../../../../arm-none-eabi/lib/thumb/v7e-m+fp/hard/libc_nano.a(lib_a-fstatr.o)
 .bss           0x0000000000000000        0x0 /home/neuberfran/neuber/gcc-arm-none-eabi-10.3-2021.10/bin/../lib/gcc/arm-none-eabi/10.3.1/../../../../arm-none-eabi/lib/thumb/v7e-m+fp/hard/libc_nano.a(lib_a-fstatr.o)
 .text          0x0000000000000000        0x0 /home/neuberfran/neuber/gcc-arm-none-eabi-10.3-2021.10/bin/../lib/gcc/arm-none-eabi/10.3.1/../../../../arm-none-eabi/lib/thumb/v7e-m+fp/hard/libc_nano.a(lib_a-isattyr.o)
 .data          0x0000000000000000        0x0 /home/neuberfran/neuber/gcc-arm-none-eabi-10.3-2021.10/bin/../lib/gcc/arm-none-eabi/10.3.1/../../../../arm-none-eabi/lib/thumb/v7e-m+fp/hard/libc_nano.a(lib_a-isattyr.o)
 .bss           0x0000000000000000        0x0 /home/neuberfran/neuber/gcc-arm-none-eabi-10.3-2021.10/bin/../lib/gcc/arm-none-eabi/10.3.1/../../../../arm-none-eabi/lib/thumb/v7e-m+fp/hard/libc_nano.a(lib_a-isattyr.o)
 .text          0x0000000000000000        0x0 /home/neuberfran/neuber/gcc-arm-none-eabi-10.3-2021.10/bin/../lib/gcc/arm-none-eabi/10.3.1/../../../../arm-none-eabi/lib/thumb/v7e-m+fp/hard/libc_nano.a(lib_a-lseekr.o)
 .data          0x0000000000000000        0x0 /home/neuberfran/neuber/gcc-arm-none-eabi-10.3-2021.10/bin/../lib/gcc/arm-none-eabi/10.3.1/../../../../arm-none-eabi/lib/thumb/v7e-m+fp/hard/libc_nano.a(lib_a-lseekr.o)
 .bss           0x0000000000000000        0x0 /home/neuberfran/neuber/gcc-arm-none-eabi-10.3-2021.10/bin/../lib/gcc/arm-none-eabi/10.3.1/../../../../arm-none-eabi/lib/thumb/v7e-m+fp/hard/libc_nano.a(lib_a-lseekr.o)
 .text          0x0000000000000000        0x0 /home/neuberfran/neuber/gcc-arm-none-eabi-10.3-2021.10/bin/../lib/gcc/arm-none-eabi/10.3.1/../../../../arm-none-eabi/lib/thumb/v7e-m+fp/hard/libc_nano.a(lib_a-mlock.o)
 .data          0x0000000000000000        0x0 /home/neuberfran/neuber/gcc-arm-none-eabi-10.3-2021.10/bin/../lib/gcc/arm-none-eabi/10.3.1/../../../../arm-none-eabi/lib/thumb/v7e-m+fp/hard/libc_nano.a(lib_a-mlock.o)
 .bss           0x0000000000000000        0x0 /home/neuberfran/neuber/gcc-arm-none-eabi-10.3-2021.10/bin/../lib/gcc/arm-none-eabi/10.3.1/../../../../arm-none-eabi/lib/thumb/v7e-m+fp/hard/libc_nano.a(lib_a-mlock.o)
 .text          0x0000000000000000        0x0 /home/neuberfran/neuber/gcc-arm-none-eabi-10.3-2021.10/bin/../lib/gcc/arm-none-eabi/10.3.1/../../../../arm-none-eabi/lib/thumb/v7e-m+fp/hard/libc_nano.a(lib_a-nano-msizer.o)
 .data          0x0000000000000000        0x0 /home/neuberfran/neuber/gcc-arm-none-eabi-10.3-2021.10/bin/../lib/gcc/arm-none-eabi/10.3.1/../../../../arm-none-eabi/lib/thumb/v7e-m+fp/hard/libc_nano.a(lib_a-nano-msizer.o)
 .bss           0x0000000000000000        0x0 /home/neuberfran/neuber/gcc-arm-none-eabi-10.3-2021.10/bin/../lib/gcc/arm-none-eabi/10.3.1/../../../../arm-none-eabi/lib/thumb/v7e-m+fp/hard/libc_nano.a(lib_a-nano-msizer.o)
 .text._malloc_usable_size_r
                0x0000000000000000       0x10 /home/neuberfran/neuber/gcc-arm-none-eabi-10.3-2021.10/bin/../lib/gcc/arm-none-eabi/10.3.1/../../../../arm-none-eabi/lib/thumb/v7e-m+fp/hard/libc_nano.a(lib_a-nano-msizer.o)
 .debug_frame   0x0000000000000000       0x20 /home/neuberfran/neuber/gcc-arm-none-eabi-10.3-2021.10/bin/../lib/gcc/arm-none-eabi/10.3.1/../../../../arm-none-eabi/lib/thumb/v7e-m+fp/hard/libc_nano.a(lib_a-nano-msizer.o)
 .ARM.attributes
                0x0000000000000000       0x34 /home/neuberfran/neuber/gcc-arm-none-eabi-10.3-2021.10/bin/../lib/gcc/arm-none-eabi/10.3.1/../../../../arm-none-eabi/lib/thumb/v7e-m+fp/hard/libc_nano.a(lib_a-nano-msizer.o)
 .text          0x0000000000000000        0x0 /home/neuberfran/neuber/gcc-arm-none-eabi-10.3-2021.10/bin/../lib/gcc/arm-none-eabi/10.3.1/../../../../arm-none-eabi/lib/thumb/v7e-m+fp/hard/libc_nano.a(lib_a-readr.o)
 .data          0x0000000000000000        0x0 /home/neuberfran/neuber/gcc-arm-none-eabi-10.3-2021.10/bin/../lib/gcc/arm-none-eabi/10.3.1/../../../../arm-none-eabi/lib/thumb/v7e-m+fp/hard/libc_nano.a(lib_a-readr.o)
 .bss           0x0000000000000000        0x0 /home/neuberfran/neuber/gcc-arm-none-eabi-10.3-2021.10/bin/../lib/gcc/arm-none-eabi/10.3.1/../../../../arm-none-eabi/lib/thumb/v7e-m+fp/hard/libc_nano.a(lib_a-readr.o)
 .text          0x0000000000000000        0x0 /home/neuberfran/neuber/gcc-arm-none-eabi-10.3-2021.10/bin/../lib/gcc/arm-none-eabi/10.3.1/../../../../arm-none-eabi/lib/thumb/v7e-m+fp/hard/libc_nano.a(lib_a-reent.o)
 .data          0x0000000000000000        0x0 /home/neuberfran/neuber/gcc-arm-none-eabi-10.3-2021.10/bin/../lib/gcc/arm-none-eabi/10.3.1/../../../../arm-none-eabi/lib/thumb/v7e-m+fp/hard/libc_nano.a(lib_a-reent.o)
 .bss           0x0000000000000000        0x0 /home/neuberfran/neuber/gcc-arm-none-eabi-10.3-2021.10/bin/../lib/gcc/arm-none-eabi/10.3.1/../../../../arm-none-eabi/lib/thumb/v7e-m+fp/hard/libc_nano.a(lib_a-reent.o)
 .text.cleanup_glue
                0x0000000000000000       0x1a /home/neuberfran/neuber/gcc-arm-none-eabi-10.3-2021.10/bin/../lib/gcc/arm-none-eabi/10.3.1/../../../../arm-none-eabi/lib/thumb/v7e-m+fp/hard/libc_nano.a(lib_a-reent.o)
 .text._reclaim_reent
                0x0000000000000000       0xb8 /home/neuberfran/neuber/gcc-arm-none-eabi-10.3-2021.10/bin/../lib/gcc/arm-none-eabi/10.3.1/../../../../arm-none-eabi/lib/thumb/v7e-m+fp/hard/libc_nano.a(lib_a-reent.o)
 .text          0x0000000000000000        0x0 /home/neuberfran/neuber/gcc-arm-none-eabi-10.3-2021.10/bin/../lib/gcc/arm-none-eabi/10.3.1/../../../../arm-none-eabi/lib/thumb/v7e-m+fp/hard/libnosys.a(close.o)
 .data          0x0000000000000000        0x0 /home/neuberfran/neuber/gcc-arm-none-eabi-10.3-2021.10/bin/../lib/gcc/arm-none-eabi/10.3.1/../../../../arm-none-eabi/lib/thumb/v7e-m+fp/hard/libnosys.a(close.o)
 .bss           0x0000000000000000        0x0 /home/neuberfran/neuber/gcc-arm-none-eabi-10.3-2021.10/bin/../lib/gcc/arm-none-eabi/10.3.1/../../../../arm-none-eabi/lib/thumb/v7e-m+fp/hard/libnosys.a(close.o)
 .text          0x0000000000000000        0x0 /home/neuberfran/neuber/gcc-arm-none-eabi-10.3-2021.10/bin/../lib/gcc/arm-none-eabi/10.3.1/../../../../arm-none-eabi/lib/thumb/v7e-m+fp/hard/libnosys.a(fstat.o)
 .data          0x0000000000000000        0x0 /home/neuberfran/neuber/gcc-arm-none-eabi-10.3-2021.10/bin/../lib/gcc/arm-none-eabi/10.3.1/../../../../arm-none-eabi/lib/thumb/v7e-m+fp/hard/libnosys.a(fstat.o)
 .bss           0x0000000000000000        0x0 /home/neuberfran/neuber/gcc-arm-none-eabi-10.3-2021.10/bin/../lib/gcc/arm-none-eabi/10.3.1/../../../../arm-none-eabi/lib/thumb/v7e-m+fp/hard/libnosys.a(fstat.o)
 .text          0x0000000000000000        0x0 /home/neuberfran/neuber/gcc-arm-none-eabi-10.3-2021.10/bin/../lib/gcc/arm-none-eabi/10.3.1/../../../../arm-none-eabi/lib/thumb/v7e-m+fp/hard/libnosys.a(getpid.o)
 .data          0x0000000000000000        0x0 /home/neuberfran/neuber/gcc-arm-none-eabi-10.3-2021.10/bin/../lib/gcc/arm-none-eabi/10.3.1/../../../../arm-none-eabi/lib/thumb/v7e-m+fp/hard/libnosys.a(getpid.o)
 .bss           0x0000000000000000        0x0 /home/neuberfran/neuber/gcc-arm-none-eabi-10.3-2021.10/bin/../lib/gcc/arm-none-eabi/10.3.1/../../../../arm-none-eabi/lib/thumb/v7e-m+fp/hard/libnosys.a(getpid.o)
 .text          0x0000000000000000        0x0 /home/neuberfran/neuber/gcc-arm-none-eabi-10.3-2021.10/bin/../lib/gcc/arm-none-eabi/10.3.1/../../../../arm-none-eabi/lib/thumb/v7e-m+fp/hard/libnosys.a(isatty.o)
 .data          0x0000000000000000        0x0 /home/neuberfran/neuber/gcc-arm-none-eabi-10.3-2021.10/bin/../lib/gcc/arm-none-eabi/10.3.1/../../../../arm-none-eabi/lib/thumb/v7e-m+fp/hard/libnosys.a(isatty.o)
 .bss           0x0000000000000000        0x0 /home/neuberfran/neuber/gcc-arm-none-eabi-10.3-2021.10/bin/../lib/gcc/arm-none-eabi/10.3.1/../../../../arm-none-eabi/lib/thumb/v7e-m+fp/hard/libnosys.a(isatty.o)
 .text          0x0000000000000000        0x0 /home/neuberfran/neuber/gcc-arm-none-eabi-10.3-2021.10/bin/../lib/gcc/arm-none-eabi/10.3.1/../../../../arm-none-eabi/lib/thumb/v7e-m+fp/hard/libnosys.a(kill.o)
 .data          0x0000000000000000        0x0 /home/neuberfran/neuber/gcc-arm-none-eabi-10.3-2021.10/bin/../lib/gcc/arm-none-eabi/10.3.1/../../../../arm-none-eabi/lib/thumb/v7e-m+fp/hard/libnosys.a(kill.o)
 .bss           0x0000000000000000        0x0 /home/neuberfran/neuber/gcc-arm-none-eabi-10.3-2021.10/bin/../lib/gcc/arm-none-eabi/10.3.1/../../../../arm-none-eabi/lib/thumb/v7e-m+fp/hard/libnosys.a(kill.o)
 .text          0x0000000000000000        0x0 /home/neuberfran/neuber/gcc-arm-none-eabi-10.3-2021.10/bin/../lib/gcc/arm-none-eabi/10.3.1/../../../../arm-none-eabi/lib/thumb/v7e-m+fp/hard/libnosys.a(lseek.o)
 .data          0x0000000000000000        0x0 /home/neuberfran/neuber/gcc-arm-none-eabi-10.3-2021.10/bin/../lib/gcc/arm-none-eabi/10.3.1/../../../../arm-none-eabi/lib/thumb/v7e-m+fp/hard/libnosys.a(lseek.o)
 .bss           0x0000000000000000        0x0 /home/neuberfran/neuber/gcc-arm-none-eabi-10.3-2021.10/bin/../lib/gcc/arm-none-eabi/10.3.1/../../../../arm-none-eabi/lib/thumb/v7e-m+fp/hard/libnosys.a(lseek.o)
 .text          0x0000000000000000        0x0 /home/neuberfran/neuber/gcc-arm-none-eabi-10.3-2021.10/bin/../lib/gcc/arm-none-eabi/10.3.1/../../../../arm-none-eabi/lib/thumb/v7e-m+fp/hard/libnosys.a(sbrk.o)
 .data          0x0000000000000000        0x0 /home/neuberfran/neuber/gcc-arm-none-eabi-10.3-2021.10/bin/../lib/gcc/arm-none-eabi/10.3.1/../../../../arm-none-eabi/lib/thumb/v7e-m+fp/hard/libnosys.a(sbrk.o)
 .bss           0x0000000000000000        0x0 /home/neuberfran/neuber/gcc-arm-none-eabi-10.3-2021.10/bin/../lib/gcc/arm-none-eabi/10.3.1/../../../../arm-none-eabi/lib/thumb/v7e-m+fp/hard/libnosys.a(sbrk.o)
 .text          0x0000000000000000        0x0 /home/neuberfran/neuber/gcc-arm-none-eabi-10.3-2021.10/bin/../lib/gcc/arm-none-eabi/10.3.1/../../../../arm-none-eabi/lib/thumb/v7e-m+fp/hard/libnosys.a(_exit.o)
 .data          0x0000000000000000        0x0 /home/neuberfran/neuber/gcc-arm-none-eabi-10.3-2021.10/bin/../lib/gcc/arm-none-eabi/10.3.1/../../../../arm-none-eabi/lib/thumb/v7e-m+fp/hard/libnosys.a(_exit.o)
 .bss           0x0000000000000000        0x0 /home/neuberfran/neuber/gcc-arm-none-eabi-10.3-2021.10/bin/../lib/gcc/arm-none-eabi/10.3.1/../../../../arm-none-eabi/lib/thumb/v7e-m+fp/hard/libnosys.a(_exit.o)
 .text          0x0000000000000000        0x0 /home/neuberfran/neuber/gcc-arm-none-eabi-10.3-2021.10/bin/../lib/gcc/arm-none-eabi/10.3.1/thumb/v7e-m+fp/hard/crtend.o
 .data          0x0000000000000000        0x0 /home/neuberfran/neuber/gcc-arm-none-eabi-10.3-2021.10/bin/../lib/gcc/arm-none-eabi/10.3.1/thumb/v7e-m+fp/hard/crtend.o
 .bss           0x0000000000000000        0x0 /home/neuberfran/neuber/gcc-arm-none-eabi-10.3-2021.10/bin/../lib/gcc/arm-none-eabi/10.3.1/thumb/v7e-m+fp/hard/crtend.o
 .rodata        0x0000000000000000       0x24 /home/neuberfran/neuber/gcc-arm-none-eabi-10.3-2021.10/bin/../lib/gcc/arm-none-eabi/10.3.1/thumb/v7e-m+fp/hard/crtend.o
 .eh_frame      0x0000000000000000        0x4 /home/neuberfran/neuber/gcc-arm-none-eabi-10.3-2021.10/bin/../lib/gcc/arm-none-eabi/10.3.1/thumb/v7e-m+fp/hard/crtend.o
 .ARM.attributes
                0x0000000000000000       0x34 /home/neuberfran/neuber/gcc-arm-none-eabi-10.3-2021.10/bin/../lib/gcc/arm-none-eabi/10.3.1/thumb/v7e-m+fp/hard/crtend.o
 .text          0x0000000000000000        0x0 /home/neuberfran/neuber/gcc-arm-none-eabi-10.3-2021.10/bin/../lib/gcc/arm-none-eabi/10.3.1/thumb/v7e-m+fp/hard/crtn.o
 .data          0x0000000000000000        0x0 /home/neuberfran/neuber/gcc-arm-none-eabi-10.3-2021.10/bin/../lib/gcc/arm-none-eabi/10.3.1/thumb/v7e-m+fp/hard/crtn.o
 .bss           0x0000000000000000        0x0 /home/neuberfran/neuber/gcc-arm-none-eabi-10.3-2021.10/bin/../lib/gcc/arm-none-eabi/10.3.1/thumb/v7e-m+fp/hard/crtn.o

Memory Configuration

Name             Origin             Length             Attributes
m_interrupts     0x000000001fff8000 0x0000000000000240 xr
m_text           0x000000001fff8240 0x0000000000007dc0 xr
m_data           0x0000000020000000 0x0000000000008000 rw
*default*        0x0000000000000000 0xffffffffffffffff

Linker script and memory map

LOAD /home/neuberfran/neuber/gcc-arm-none-eabi-10.3-2021.10/bin/../lib/gcc/arm-none-eabi/10.3.1/thumb/v7e-m+fp/hard/crti.o
LOAD /home/neuberfran/neuber/gcc-arm-none-eabi-10.3-2021.10/bin/../lib/gcc/arm-none-eabi/10.3.1/thumb/v7e-m+fp/hard/crtbegin.o
LOAD /home/neuberfran/neuber/gcc-arm-none-eabi-10.3-2021.10/bin/../lib/gcc/arm-none-eabi/10.3.1/../../../../arm-none-eabi/lib/thumb/v7e-m+fp/hard/crt0.o
LOAD /home/neuberfran/neuber/gcc-arm-none-eabi-10.3-2021.10/bin/../lib/gcc/arm-none-eabi/10.3.1/../../../../arm-none-eabi/lib/thumb/v7e-m+fp/hard/libm.a
LOAD CMakeFiles/rpmsg_str_echo_freertos_example.dir/home/neuberfran/projects/freertos-tn/rtos/FreeRTOS/Source/portable/GCC/ARM_CM4F/port.c.obj
LOAD CMakeFiles/rpmsg_str_echo_freertos_example.dir/home/neuberfran/projects/freertos-tn/platform/devices/MCIMX7D/startup/gcc/startup_MCIMX7D_M4.S.obj
LOAD CMakeFiles/rpmsg_str_echo_freertos_example.dir/home/neuberfran/projects/freertos-tn/rtos/FreeRTOS/Source/portable/MemMang/heap_2.c.obj
LOAD CMakeFiles/rpmsg_str_echo_freertos_example.dir/home/neuberfran/projects/freertos-tn/examples/imx7d_pico_m4/demo_apps/rpmsg/str_echo_freertos/str_echo_freertos.c.obj
LOAD CMakeFiles/rpmsg_str_echo_freertos_example.dir/home/neuberfran/projects/freertos-tn/middleware/multicore/open-amp/rpmsg/rpmsg_rtos.c.obj
LOAD CMakeFiles/rpmsg_str_echo_freertos_example.dir/home/neuberfran/projects/freertos-tn/middleware/multicore/open-amp/porting/imx7d_m4/platform.c.obj
LOAD CMakeFiles/rpmsg_str_echo_freertos_example.dir/home/neuberfran/projects/freertos-tn/middleware/multicore/open-amp/porting/imx7d_m4/platform_info.c.obj
LOAD CMakeFiles/rpmsg_str_echo_freertos_example.dir/home/neuberfran/projects/freertos-tn/middleware/multicore/open-amp/common/hil/hil.c.obj
LOAD CMakeFiles/rpmsg_str_echo_freertos_example.dir/home/neuberfran/projects/freertos-tn/middleware/multicore/open-amp/common/llist/llist.c.obj
LOAD CMakeFiles/rpmsg_str_echo_freertos_example.dir/home/neuberfran/projects/freertos-tn/middleware/multicore/open-amp/common/shm/sh_mem.c.obj
LOAD CMakeFiles/rpmsg_str_echo_freertos_example.dir/home/neuberfran/projects/freertos-tn/middleware/multicore/open-amp/porting/config/config.c.obj
LOAD CMakeFiles/rpmsg_str_echo_freertos_example.dir/home/neuberfran/projects/freertos-tn/middleware/multicore/open-amp/rpmsg/remote_device.c.obj
LOAD CMakeFiles/rpmsg_str_echo_freertos_example.dir/home/neuberfran/projects/freertos-tn/middleware/multicore/open-amp/rpmsg/rpmsg.c.obj
LOAD CMakeFiles/rpmsg_str_echo_freertos_example.dir/home/neuberfran/projects/freertos-tn/middleware/multicore/open-amp/rpmsg/rpmsg_ext.c.obj
LOAD CMakeFiles/rpmsg_str_echo_freertos_example.dir/home/neuberfran/projects/freertos-tn/middleware/multicore/open-amp/rpmsg/rpmsg_core.c.obj
LOAD CMakeFiles/rpmsg_str_echo_freertos_example.dir/home/neuberfran/projects/freertos-tn/middleware/multicore/open-amp/virtio/virtio.c.obj
LOAD CMakeFiles/rpmsg_str_echo_freertos_example.dir/home/neuberfran/projects/freertos-tn/middleware/multicore/open-amp/virtio/virtqueue.c.obj
LOAD CMakeFiles/rpmsg_str_echo_freertos_example.dir/home/neuberfran/projects/freertos-tn/middleware/multicore/open-amp/porting/env/freertos/rpmsg_porting.c.obj
LOAD CMakeFiles/rpmsg_str_echo_freertos_example.dir/home/neuberfran/projects/freertos-tn/rtos/FreeRTOS/Source/croutine.c.obj
LOAD CMakeFiles/rpmsg_str_echo_freertos_example.dir/home/neuberfran/projects/freertos-tn/rtos/FreeRTOS/Source/event_groups.c.obj
LOAD CMakeFiles/rpmsg_str_echo_freertos_example.dir/home/neuberfran/projects/freertos-tn/rtos/FreeRTOS/Source/list.c.obj
LOAD CMakeFiles/rpmsg_str_echo_freertos_example.dir/home/neuberfran/projects/freertos-tn/rtos/FreeRTOS/Source/queue.c.obj
LOAD CMakeFiles/rpmsg_str_echo_freertos_example.dir/home/neuberfran/projects/freertos-tn/rtos/FreeRTOS/Source/tasks.c.obj
LOAD CMakeFiles/rpmsg_str_echo_freertos_example.dir/home/neuberfran/projects/freertos-tn/rtos/FreeRTOS/Source/timers.c.obj
LOAD CMakeFiles/rpmsg_str_echo_freertos_example.dir/home/neuberfran/projects/freertos-tn/platform/drivers/src/ccm_analog_imx7d.c.obj
LOAD CMakeFiles/rpmsg_str_echo_freertos_example.dir/home/neuberfran/projects/freertos-tn/platform/drivers/src/ccm_imx7d.c.obj
LOAD CMakeFiles/rpmsg_str_echo_freertos_example.dir/home/neuberfran/projects/freertos-tn/platform/drivers/src/lmem.c.obj
LOAD CMakeFiles/rpmsg_str_echo_freertos_example.dir/home/neuberfran/projects/freertos-tn/platform/drivers/src/rdc.c.obj
LOAD CMakeFiles/rpmsg_str_echo_freertos_example.dir/home/neuberfran/projects/freertos-tn/platform/drivers/src/wdog_imx.c.obj
LOAD CMakeFiles/rpmsg_str_echo_freertos_example.dir/home/neuberfran/projects/freertos-tn/platform/utilities/src/debug_console_imx.c.obj
LOAD CMakeFiles/rpmsg_str_echo_freertos_example.dir/home/neuberfran/projects/freertos-tn/platform/utilities/src/print_scan.c.obj
LOAD CMakeFiles/rpmsg_str_echo_freertos_example.dir/home/neuberfran/projects/freertos-tn/platform/devices/MCIMX7D/startup/system_MCIMX7D_M4.c.obj
LOAD CMakeFiles/rpmsg_str_echo_freertos_example.dir/home/neuberfran/projects/freertos-tn/examples/imx7d_pico_m4/pin_mux.c.obj
LOAD CMakeFiles/rpmsg_str_echo_freertos_example.dir/home/neuberfran/projects/freertos-tn/examples/imx7d_pico_m4/board.c.obj
LOAD CMakeFiles/rpmsg_str_echo_freertos_example.dir/home/neuberfran/projects/freertos-tn/examples/imx7d_pico_m4/clock_freq.c.obj
LOAD CMakeFiles/rpmsg_str_echo_freertos_example.dir/home/neuberfran/projects/freertos-tn/examples/imx7d_pico_m4/demo_apps/rpmsg/str_echo_freertos/hardware_init.c.obj
LOAD CMakeFiles/rpmsg_str_echo_freertos_example.dir/home/neuberfran/projects/freertos-tn/platform/drivers/src/uart_imx.c.obj
LOAD CMakeFiles/rpmsg_str_echo_freertos_example.dir/home/neuberfran/projects/freertos-tn/platform/drivers/src/mu_imx.c.obj
START GROUP
LOAD /home/neuberfran/neuber/gcc-arm-none-eabi-10.3-2021.10/bin/../lib/gcc/arm-none-eabi/10.3.1/../../../../arm-none-eabi/lib/thumb/v7e-m+fp/hard/libm.a
LOAD /home/neuberfran/neuber/gcc-arm-none-eabi-10.3-2021.10/bin/../lib/gcc/arm-none-eabi/10.3.1/../../../../arm-none-eabi/lib/thumb/v7e-m+fp/hard/libc_nano.a
LOAD /home/neuberfran/neuber/gcc-arm-none-eabi-10.3-2021.10/bin/../lib/gcc/arm-none-eabi/10.3.1/thumb/v7e-m+fp/hard/libgcc.a
LOAD /home/neuberfran/neuber/gcc-arm-none-eabi-10.3-2021.10/bin/../lib/gcc/arm-none-eabi/10.3.1/../../../../arm-none-eabi/lib/thumb/v7e-m+fp/hard/libnosys.a
END GROUP
START GROUP
LOAD /home/neuberfran/neuber/gcc-arm-none-eabi-10.3-2021.10/bin/../lib/gcc/arm-none-eabi/10.3.1/thumb/v7e-m+fp/hard/libgcc.a
LOAD /home/neuberfran/neuber/gcc-arm-none-eabi-10.3-2021.10/bin/../lib/gcc/arm-none-eabi/10.3.1/../../../../arm-none-eabi/lib/thumb/v7e-m+fp/hard/libg_nano.a
LOAD /home/neuberfran/neuber/gcc-arm-none-eabi-10.3-2021.10/bin/../lib/gcc/arm-none-eabi/10.3.1/../../../../arm-none-eabi/lib/thumb/v7e-m+fp/hard/libc_nano.a
END GROUP
START GROUP
LOAD /home/neuberfran/neuber/gcc-arm-none-eabi-10.3-2021.10/bin/../lib/gcc/arm-none-eabi/10.3.1/thumb/v7e-m+fp/hard/libgcc.a
LOAD /home/neuberfran/neuber/gcc-arm-none-eabi-10.3-2021.10/bin/../lib/gcc/arm-none-eabi/10.3.1/../../../../arm-none-eabi/lib/thumb/v7e-m+fp/hard/libc_nano.a
LOAD /home/neuberfran/neuber/gcc-arm-none-eabi-10.3-2021.10/bin/../lib/gcc/arm-none-eabi/10.3.1/../../../../arm-none-eabi/lib/thumb/v7e-m+fp/hard/libnosys.a
END GROUP
START GROUP
LOAD /home/neuberfran/neuber/gcc-arm-none-eabi-10.3-2021.10/bin/../lib/gcc/arm-none-eabi/10.3.1/thumb/v7e-m+fp/hard/libgcc.a
LOAD /home/neuberfran/neuber/gcc-arm-none-eabi-10.3-2021.10/bin/../lib/gcc/arm-none-eabi/10.3.1/../../../../arm-none-eabi/lib/thumb/v7e-m+fp/hard/libc_nano.a
LOAD /home/neuberfran/neuber/gcc-arm-none-eabi-10.3-2021.10/bin/../lib/gcc/arm-none-eabi/10.3.1/../../../../arm-none-eabi/lib/thumb/v7e-m+fp/hard/libnosys.a
END GROUP
LOAD /home/neuberfran/neuber/gcc-arm-none-eabi-10.3-2021.10/bin/../lib/gcc/arm-none-eabi/10.3.1/thumb/v7e-m+fp/hard/crtend.o
LOAD /home/neuberfran/neuber/gcc-arm-none-eabi-10.3-2021.10/bin/../lib/gcc/arm-none-eabi/10.3.1/thumb/v7e-m+fp/hard/crtn.o
                0x0000000000000400                HEAP_SIZE = DEFINED (__heap_size__)?__heap_size__:0x400
                0x0000000000000400                STACK_SIZE = DEFINED (__stack_size__)?__stack_size__:0x400

.interrupts     0x000000001fff8000      0x240
                0x000000001fff8000                __VECTOR_TABLE = .
                0x000000001fff8000                . = ALIGN (0x4)
 *(.isr_vector)
 .isr_vector    0x000000001fff8000      0x240 CMakeFiles/rpmsg_str_echo_freertos_example.dir/home/neuberfran/projects/freertos-tn/platform/devices/MCIMX7D/startup/gcc/startup_MCIMX7D_M4.S.obj
                0x000000001fff8000                __isr_vector
                0x000000001fff8240                . = ALIGN (0x4)

.text           0x000000001fff8240     0x7e04
                0x000000001fff8240                . = ALIGN (0x4)
 *(.text)
 .text          0x000000001fff8240       0x40 /home/neuberfran/neuber/gcc-arm-none-eabi-10.3-2021.10/bin/../lib/gcc/arm-none-eabi/10.3.1/thumb/v7e-m+fp/hard/crtbegin.o
 .text          0x000000001fff8280       0x7c /home/neuberfran/neuber/gcc-arm-none-eabi-10.3-2021.10/bin/../lib/gcc/arm-none-eabi/10.3.1/../../../../arm-none-eabi/lib/thumb/v7e-m+fp/hard/crt0.o
                0x000000001fff8280                _stack_init
                0x000000001fff8288                _mainCRTStartup
                0x000000001fff8288                _start
 .text          0x000000001fff82fc       0x30 CMakeFiles/rpmsg_str_echo_freertos_example.dir/home/neuberfran/projects/freertos-tn/platform/devices/MCIMX7D/startup/gcc/startup_MCIMX7D_M4.S.obj
                0x000000001fff82fc                Reset_Handler
                0x000000001fff8328                ENET2_MAC0_TRANS1_Handler
                0x000000001fff8328                SAI3_Handler
                0x000000001fff8328                DebugMon_Handler
                0x000000001fff8328                USB_OH3_OTG2_1_Handler
                0x000000001fff8328                GPIO3_INT31_16_Handler
                0x000000001fff8328                eCSPI4_Handler
                0x000000001fff8328                SIM2_Handler
                0x000000001fff8328                FLEXCAN1_Handler
                0x000000001fff8328                UART3_Handler
                0x000000001fff8328                UART2_Handler
                0x000000001fff8328                GPIO1_INT3_Handler
                0x000000001fff8328                HardFault_Handler
                0x000000001fff8328                SNVS_SECURITY_Handler
                0x000000001fff8328                SEMA4_HS_M4_Handler
                0x000000001fff8328                GPIO6_INT31_16_Handler
                0x000000001fff8328                SRC_Handler
                0x000000001fff8328                GPT2_Handler
                0x000000001fff8328                CCM2_Handler
                0x000000001fff8328                I2C1_Handler
                0x000000001fff8328                CPU_CTI_Handler
                0x000000001fff8328                NMI_Handler
                0x000000001fff8328                SAI1_Handler
                0x000000001fff8328                ENET2_MAC0_IRQ_Handler
                0x000000001fff8328                KPP_Handler
                0x000000001fff8328                USB_OTG1_Handler
                0x000000001fff8328                MIPI_CSI_Handler
                0x000000001fff8328                WDOG4_Handler
                0x000000001fff8328                Reserved9_Handler
                0x000000001fff8328                QSPI_Handler
                0x000000001fff8328                CAAM_QUEUE_Handler
                0x000000001fff8328                GPIO2_INT15_0_Handler
                0x000000001fff8328                PCIE_CTRL4_Handler
                0x000000001fff8328                uSDHC2_Handler
                0x000000001fff8328                GPIO1_INT6_Handler
                0x000000001fff8328                PCIE_CTRL_REQUEST_Handler
                0x000000001fff8328                SCTR1_Handler
                0x000000001fff8328                RDC_Handler
                0x000000001fff8328                EPDC_Handler
                0x000000001fff8328                CCM1_Handler
                0x000000001fff8328                UsageFault_Handler
                0x000000001fff8328                ADC1_Handler
                0x000000001fff8328                GPIO1_INT0_Handler
                0x000000001fff8328                Analog_brown_out_Handler
                0x000000001fff8328                PXP2_Handler
                0x000000001fff8328                SEMA4_HS_A7_Handler
                0x000000001fff8328                RTIC_Handler
                0x000000001fff8328                DefaultISR
                0x000000001fff8328                GPIO6_INT15_0_Handler
                0x000000001fff8328                SCTR2_Handler
                0x000000001fff8328                WDOG3_Handler
                0x000000001fff8328                USB_OH2_OTG_Handler
                0x000000001fff8328                SAI2_Handler
                0x000000001fff8328                GPIO3_INT15_0_Handler
                0x000000001fff8328                FTM2_Handler
                0x000000001fff8328                eCSPI1_Handler
                0x000000001fff8328                GPC_Handler
                0x000000001fff8328                GPIO1_INT15_0_Handler
                0x000000001fff8328                UART1_Handler
                0x000000001fff8328                ENET1_MAC0_TRANS2_Handler
                0x000000001fff8328                eCSPI3_Handler
                0x000000001fff8328                BCH_Handler
                0x000000001fff8328                CAAM_ERROR_Handler
                0x000000001fff8328                Analog_TempSensor_Handler
                0x000000001fff8328                PXP1_Handler
                0x000000001fff8328                SNVS_Handler
                0x000000001fff8328                GPT4_Handler
                0x000000001fff8328                GPIO5_INT15_0_Handler
                0x000000001fff8328                ENET2_MAC0_TRANS2_Handler
                0x000000001fff8328                GPMI_Handler
                0x000000001fff8328                I2C4_Handler
                0x000000001fff8328                CCM_SRC_GPC_Handler
                0x000000001fff8328                CPU_Handler
                0x000000001fff8328                UART4_Handler
                0x000000001fff8328                GPIO1_INT1_Handler
                0x000000001fff8328                uSDHC3_Handler
                0x000000001fff8328                EIM_Handler
                0x000000001fff8328                PWM1_Handler
                0x000000001fff8328                ENET2_1588_TIMER_IRQ_Handler
                0x000000001fff8328                UART6_Handler
                0x000000001fff8328                GPIO1_INT4_Handler
                0x000000001fff8328                GPIO1_INT31_16_Handler
                0x000000001fff8328                APBHDMA_Handler
                0x000000001fff8328                uSDHC1_Handler
                0x000000001fff8328                DBGMON_Handler
                0x000000001fff8328                UART7_Handler
                0x000000001fff8328                SDMA_Handler
                0x000000001fff8328                GPT1_Handler
                0x000000001fff8328                PWM3_Handler
                0x000000001fff8328                PCIE_CTRL2_Handler
                0x000000001fff8328                MemManage_Handler
                0x000000001fff8328                GPIO5_INT31_16_Handler
                0x000000001fff8328                TZASC1_Handler
                0x000000001fff8328                I2C2_Handler
                0x000000001fff8328                DAP_Handler
                0x000000001fff8328                GPIO4_INT15_0_Handler
                0x000000001fff8328                CSI_Handler
                0x000000001fff8328                eCSPI2_Handler
                0x000000001fff8328                ENET1_1588_TIMER_Handler
                0x000000001fff8328                WDOG2_Handler
                0x000000001fff8328                FLEXCAN2_Handler
                0x000000001fff8328                PCIE_CTRL1_Handler
                0x000000001fff8328                PCIE_CTRL3_Handler
                0x000000001fff8328                GPT3_Handler
                0x000000001fff8328                GPIO1_INT5_Handler
                0x000000001fff8328                CAAM_WRAPPER2_Handler
                0x000000001fff8328                SNVS_CONSOLIDATED_Handler
                0x000000001fff8328                CAAM_WRAPPER1_Handler
                0x000000001fff8328                GPIO4_INT31_16_Handler
                0x000000001fff8328                GPIO1_INT2_Handler
                0x000000001fff8328                LCDIF_Handler
                0x000000001fff8328                UART5_Handler
                0x000000001fff8328                PERFMON1_Handler
                0x000000001fff8328                GPIO1_INT7_Handler
                0x000000001fff8328                I2C3_Handler
                0x000000001fff8328                CSU_Handler
                0x000000001fff8328                MIPI_DSI_Handler
                0x000000001fff8328                PWM2_Handler
                0x000000001fff8328                GPR_Handler
                0x000000001fff8328                SIM1_Handler
                0x000000001fff8328                USB_OTG2_Handler
                0x000000001fff8328                ENET1_MAC0_TRANS1_Handler
                0x000000001fff8328                BusFault_Handler
                0x000000001fff8328                USB_OH3_OTG2_2_Handler
                0x000000001fff8328                ENET1_MAC0_Handler
                0x000000001fff8328                PERFMON2_Handler
                0x000000001fff8328                GPIO7_INT31_16_Handler
                0x000000001fff8328                PWM4_Handler
                0x000000001fff8328                GPIO2_INT31_16_Handler
                0x000000001fff8328                FTM1_Handler
                0x000000001fff8328                GPIO7_INT15_0_Handler
                0x000000001fff8328                WDOG1_Handler
                0x000000001fff8328                MU_A7_Handler
                0x000000001fff8328                ADC2_Handler
                0x000000001fff8328                TPR_Handler
 .text          0x000000001fff832c       0x10 /home/neuberfran/neuber/gcc-arm-none-eabi-10.3-2021.10/bin/../lib/gcc/arm-none-eabi/10.3.1/../../../../arm-none-eabi/lib/thumb/v7e-m+fp/hard/libc_nano.a(lib_a-strlen.o)
                0x000000001fff832c                strlen
 *fill*         0x000000001fff833c        0x4 
 .text          0x000000001fff8340       0xa0 /home/neuberfran/neuber/gcc-arm-none-eabi-10.3-2021.10/bin/../lib/gcc/arm-none-eabi/10.3.1/../../../../arm-none-eabi/lib/thumb/v7e-m+fp/hard/libc_nano.a(lib_a-memchr.o)
                0x000000001fff8340                memchr
 *(.text*)
 .text.pxPortInitialiseStack
                0x000000001fff83e0       0x64 CMakeFiles/rpmsg_str_echo_freertos_example.dir/home/neuberfran/projects/freertos-tn/rtos/FreeRTOS/Source/portable/GCC/ARM_CM4F/port.c.obj
                0x000000001fff83e0                pxPortInitialiseStack
 .text.prvTaskExitError
                0x000000001fff8444       0x20 CMakeFiles/rpmsg_str_echo_freertos_example.dir/home/neuberfran/projects/freertos-tn/rtos/FreeRTOS/Source/portable/GCC/ARM_CM4F/port.c.obj
 .text.SVC_Handler
                0x000000001fff8464       0x24 CMakeFiles/rpmsg_str_echo_freertos_example.dir/home/neuberfran/projects/freertos-tn/rtos/FreeRTOS/Source/portable/GCC/ARM_CM4F/port.c.obj
                0x000000001fff8464                SVC_Handler
 .text.prvPortStartFirstTask
                0x000000001fff8488       0x20 CMakeFiles/rpmsg_str_echo_freertos_example.dir/home/neuberfran/projects/freertos-tn/rtos/FreeRTOS/Source/portable/GCC/ARM_CM4F/port.c.obj
 .text.xPortStartScheduler
                0x000000001fff84a8       0xd0 CMakeFiles/rpmsg_str_echo_freertos_example.dir/home/neuberfran/projects/freertos-tn/rtos/FreeRTOS/Source/portable/GCC/ARM_CM4F/port.c.obj
                0x000000001fff84a8                xPortStartScheduler
 .text.vPortYield
                0x000000001fff8578       0x24 CMakeFiles/rpmsg_str_echo_freertos_example.dir/home/neuberfran/projects/freertos-tn/rtos/FreeRTOS/Source/portable/GCC/ARM_CM4F/port.c.obj
                0x000000001fff8578                vPortYield
 .text.vPortEnterCritical
                0x000000001fff859c       0x24 CMakeFiles/rpmsg_str_echo_freertos_example.dir/home/neuberfran/projects/freertos-tn/rtos/FreeRTOS/Source/portable/GCC/ARM_CM4F/port.c.obj
                0x000000001fff859c                vPortEnterCritical
 .text.vPortExitCritical
                0x000000001fff85c0       0x34 CMakeFiles/rpmsg_str_echo_freertos_example.dir/home/neuberfran/projects/freertos-tn/rtos/FreeRTOS/Source/portable/GCC/ARM_CM4F/port.c.obj
                0x000000001fff85c0                vPortExitCritical
 .text.ulPortSetInterruptMask
                0x000000001fff85f4       0x12 CMakeFiles/rpmsg_str_echo_freertos_example.dir/home/neuberfran/projects/freertos-tn/rtos/FreeRTOS/Source/portable/GCC/ARM_CM4F/port.c.obj
                0x000000001fff85f4                ulPortSetInterruptMask
 .text.vPortClearInterruptMask
                0x000000001fff8606        0x8 CMakeFiles/rpmsg_str_echo_freertos_example.dir/home/neuberfran/projects/freertos-tn/rtos/FreeRTOS/Source/portable/GCC/ARM_CM4F/port.c.obj
                0x000000001fff8606                vPortClearInterruptMask
 *fill*         0x000000001fff860e        0x2 
 .text.PendSV_Handler
                0x000000001fff8610       0x5c CMakeFiles/rpmsg_str_echo_freertos_example.dir/home/neuberfran/projects/freertos-tn/rtos/FreeRTOS/Source/portable/GCC/ARM_CM4F/port.c.obj
                0x000000001fff8610                PendSV_Handler
 .text.SysTick_Handler
                0x000000001fff866c       0x28 CMakeFiles/rpmsg_str_echo_freertos_example.dir/home/neuberfran/projects/freertos-tn/rtos/FreeRTOS/Source/portable/GCC/ARM_CM4F/port.c.obj
                0x000000001fff866c                SysTick_Handler
 .text.vPortSetupTimerInterrupt
                0x000000001fff8694       0x28 CMakeFiles/rpmsg_str_echo_freertos_example.dir/home/neuberfran/projects/freertos-tn/rtos/FreeRTOS/Source/portable/GCC/ARM_CM4F/port.c.obj
                0x000000001fff8694                vPortSetupTimerInterrupt
 .text.vPortEnableVFP
                0x000000001fff86bc       0x14 CMakeFiles/rpmsg_str_echo_freertos_example.dir/home/neuberfran/projects/freertos-tn/rtos/FreeRTOS/Source/portable/GCC/ARM_CM4F/port.c.obj
 .text.vPortValidateInterruptPriority
                0x000000001fff86d0       0x5c CMakeFiles/rpmsg_str_echo_freertos_example.dir/home/neuberfran/projects/freertos-tn/rtos/FreeRTOS/Source/portable/GCC/ARM_CM4F/port.c.obj
                0x000000001fff86d0                vPortValidateInterruptPriority
 .text.pvPortMalloc
                0x000000001fff872c      0x11c CMakeFiles/rpmsg_str_echo_freertos_example.dir/home/neuberfran/projects/freertos-tn/rtos/FreeRTOS/Source/portable/MemMang/heap_2.c.obj
                0x000000001fff872c                pvPortMalloc
 .text.vPortFree
                0x000000001fff8848       0x74 CMakeFiles/rpmsg_str_echo_freertos_example.dir/home/neuberfran/projects/freertos-tn/rtos/FreeRTOS/Source/portable/MemMang/heap_2.c.obj
                0x000000001fff8848                vPortFree
 .text.prvHeapInit
                0x000000001fff88bc       0x54 CMakeFiles/rpmsg_str_echo_freertos_example.dir/home/neuberfran/projects/freertos-tn/rtos/FreeRTOS/Source/portable/MemMang/heap_2.c.obj
 .text.NVIC_EnableIRQ
                0x000000001fff8910       0x34 CMakeFiles/rpmsg_str_echo_freertos_example.dir/home/neuberfran/projects/freertos-tn/examples/imx7d_pico_m4/demo_apps/rpmsg/str_echo_freertos/str_echo_freertos.c.obj
 .text.NVIC_SetPriority
                0x000000001fff8944       0x54 CMakeFiles/rpmsg_str_echo_freertos_example.dir/home/neuberfran/projects/freertos-tn/examples/imx7d_pico_m4/demo_apps/rpmsg/str_echo_freertos/str_echo_freertos.c.obj
 .text.MU_Init  0x000000001fff8998       0x22 CMakeFiles/rpmsg_str_echo_freertos_example.dir/home/neuberfran/projects/freertos-tn/examples/imx7d_pico_m4/demo_apps/rpmsg/str_echo_freertos/str_echo_freertos.c.obj
 *fill*         0x000000001fff89ba        0x2 
 .text.StrEchoTask
                0x000000001fff89bc      0x170 CMakeFiles/rpmsg_str_echo_freertos_example.dir/home/neuberfran/projects/freertos-tn/examples/imx7d_pico_m4/demo_apps/rpmsg/str_echo_freertos/str_echo_freertos.c.obj
 .text.MU_M4_Handler
                0x000000001fff8b2c        0xc CMakeFiles/rpmsg_str_echo_freertos_example.dir/home/neuberfran/projects/freertos-tn/examples/imx7d_pico_m4/demo_apps/rpmsg/str_echo_freertos/str_echo_freertos.c.obj
                0x000000001fff8b2c                MU_M4_Handler
 .text.main     0x000000001fff8b38       0x50 CMakeFiles/rpmsg_str_echo_freertos_example.dir/home/neuberfran/projects/freertos-tn/examples/imx7d_pico_m4/demo_apps/rpmsg/str_echo_freertos/str_echo_freertos.c.obj
                0x000000001fff8b38                main
 .text.rpmsg_channel_created_rtos
                0x000000001fff8b88       0x74 CMakeFiles/rpmsg_str_echo_freertos_example.dir/home/neuberfran/projects/freertos-tn/middleware/multicore/open-amp/rpmsg/rpmsg_rtos.c.obj
 .text.rpmsg_channel_deleted_rtos
                0x000000001fff8bfc       0x38 CMakeFiles/rpmsg_str_echo_freertos_example.dir/home/neuberfran/projects/freertos-tn/middleware/multicore/open-amp/rpmsg/rpmsg_rtos.c.obj
 .text.rpmsg_read_rtos_cb
                0x000000001fff8c34       0x74 CMakeFiles/rpmsg_str_echo_freertos_example.dir/home/neuberfran/projects/freertos-tn/middleware/multicore/open-amp/rpmsg/rpmsg_rtos.c.obj
 .text.rpmsg_rtos_init
                0x000000001fff8ca8      0x114 CMakeFiles/rpmsg_str_echo_freertos_example.dir/home/neuberfran/projects/freertos-tn/middleware/multicore/open-amp/rpmsg/rpmsg_rtos.c.obj
                0x000000001fff8ca8                rpmsg_rtos_init
 .text.rpmsg_rtos_recv_nocopy
                0x000000001fff8dbc       0x8c CMakeFiles/rpmsg_str_echo_freertos_example.dir/home/neuberfran/projects/freertos-tn/middleware/multicore/open-amp/rpmsg/rpmsg_rtos.c.obj
                0x000000001fff8dbc                rpmsg_rtos_recv_nocopy
 .text.rpmsg_rtos_recv_nocopy_free
                0x000000001fff8e48       0x54 CMakeFiles/rpmsg_str_echo_freertos_example.dir/home/neuberfran/projects/freertos-tn/middleware/multicore/open-amp/rpmsg/rpmsg_rtos.c.obj
                0x000000001fff8e48                rpmsg_rtos_recv_nocopy_free
 .text.rpmsg_rtos_alloc_tx_buffer
                0x000000001fff8e9c       0x50 CMakeFiles/rpmsg_str_echo_freertos_example.dir/home/neuberfran/projects/freertos-tn/middleware/multicore/open-amp/rpmsg/rpmsg_rtos.c.obj
                0x000000001fff8e9c                rpmsg_rtos_alloc_tx_buffer
 .text.rpmsg_rtos_send_nocopy
                0x000000001fff8eec       0x60 CMakeFiles/rpmsg_str_echo_freertos_example.dir/home/neuberfran/projects/freertos-tn/middleware/multicore/open-amp/rpmsg/rpmsg_rtos.c.obj
                0x000000001fff8eec                rpmsg_rtos_send_nocopy
 .text.NVIC_EnableIRQ
                0x000000001fff8f4c       0x34 CMakeFiles/rpmsg_str_echo_freertos_example.dir/home/neuberfran/projects/freertos-tn/middleware/multicore/open-amp/porting/imx7d_m4/platform.c.obj
 .text.NVIC_DisableIRQ
                0x000000001fff8f80       0x34 CMakeFiles/rpmsg_str_echo_freertos_example.dir/home/neuberfran/projects/freertos-tn/middleware/multicore/open-amp/porting/imx7d_m4/platform.c.obj
 .text.MU_EnableRxFullInt
                0x000000001fff8fb4       0x2e CMakeFiles/rpmsg_str_echo_freertos_example.dir/home/neuberfran/projects/freertos-tn/middleware/multicore/open-amp/porting/imx7d_m4/platform.c.obj
 *fill*         0x000000001fff8fe2        0x2 
 .text._enable_interrupt
                0x000000001fff8fe4       0x30 CMakeFiles/rpmsg_str_echo_freertos_example.dir/home/neuberfran/projects/freertos-tn/middleware/multicore/open-amp/porting/imx7d_m4/platform.c.obj
 .text._notify  0x000000001fff9014       0x28 CMakeFiles/rpmsg_str_echo_freertos_example.dir/home/neuberfran/projects/freertos-tn/middleware/multicore/open-amp/porting/imx7d_m4/platform.c.obj
 .text._boot_cpu
                0x000000001fff903c       0x24 CMakeFiles/rpmsg_str_echo_freertos_example.dir/home/neuberfran/projects/freertos-tn/middleware/multicore/open-amp/porting/imx7d_m4/platform.c.obj
 .text._shutdown_cpu
                0x000000001fff9060       0x20 CMakeFiles/rpmsg_str_echo_freertos_example.dir/home/neuberfran/projects/freertos-tn/middleware/multicore/open-amp/porting/imx7d_m4/platform.c.obj
 .text.rpmsg_handler
                0x000000001fff9080       0x34 CMakeFiles/rpmsg_str_echo_freertos_example.dir/home/neuberfran/projects/freertos-tn/middleware/multicore/open-amp/porting/imx7d_m4/platform.c.obj
                0x000000001fff9080                rpmsg_handler
 .text.platform_isr
                0x000000001fff90b4       0x18 CMakeFiles/rpmsg_str_echo_freertos_example.dir/home/neuberfran/projects/freertos-tn/middleware/multicore/open-amp/porting/imx7d_m4/platform.c.obj
                0x000000001fff90b4                platform_isr
 .text.platform_in_isr
                0x000000001fff90cc       0x24 CMakeFiles/rpmsg_str_echo_freertos_example.dir/home/neuberfran/projects/freertos-tn/middleware/multicore/open-amp/porting/imx7d_m4/platform.c.obj
                0x000000001fff90cc                platform_in_isr
 .text.platform_interrupt_enable
                0x000000001fff90f0       0x90 CMakeFiles/rpmsg_str_echo_freertos_example.dir/home/neuberfran/projects/freertos-tn/middleware/multicore/open-amp/porting/imx7d_m4/platform.c.obj
                0x000000001fff90f0                platform_interrupt_enable
 .text.platform_interrupt_disable
                0x000000001fff9180       0x98 CMakeFiles/rpmsg_str_echo_freertos_example.dir/home/neuberfran/projects/freertos-tn/middleware/multicore/open-amp/porting/imx7d_m4/platform.c.obj
                0x000000001fff9180                platform_interrupt_disable
 .text.platform_interrupt_enable_all
                0x000000001fff9218       0x48 CMakeFiles/rpmsg_str_echo_freertos_example.dir/home/neuberfran/projects/freertos-tn/middleware/multicore/open-amp/porting/imx7d_m4/platform.c.obj
                0x000000001fff9218                platform_interrupt_enable_all
 .text.platform_interrupt_disable_all
                0x000000001fff9260       0x44 CMakeFiles/rpmsg_str_echo_freertos_example.dir/home/neuberfran/projects/freertos-tn/middleware/multicore/open-amp/porting/imx7d_m4/platform.c.obj
                0x000000001fff9260                platform_interrupt_disable_all
 .text.platform_map_mem_region
                0x000000001fff92a4       0x1a CMakeFiles/rpmsg_str_echo_freertos_example.dir/home/neuberfran/projects/freertos-tn/middleware/multicore/open-amp/porting/imx7d_m4/platform.c.obj
                0x000000001fff92a4                platform_map_mem_region
 .text.platform_vatopa
                0x000000001fff92be       0x16 CMakeFiles/rpmsg_str_echo_freertos_example.dir/home/neuberfran/projects/freertos-tn/middleware/multicore/open-amp/porting/imx7d_m4/platform.c.obj
                0x000000001fff92be                platform_vatopa
 .text.platform_patova
                0x000000001fff92d4       0x16 CMakeFiles/rpmsg_str_echo_freertos_example.dir/home/neuberfran/projects/freertos-tn/middleware/multicore/open-amp/porting/imx7d_m4/platform.c.obj
                0x000000001fff92d4                platform_patova
 .text.platform_init
                0x000000001fff92ea       0x10 CMakeFiles/rpmsg_str_echo_freertos_example.dir/home/neuberfran/projects/freertos-tn/middleware/multicore/open-amp/porting/imx7d_m4/platform.c.obj
                0x000000001fff92ea                platform_init
 .text.platform_deinit
                0x000000001fff92fa       0x10 CMakeFiles/rpmsg_str_echo_freertos_example.dir/home/neuberfran/projects/freertos-tn/middleware/multicore/open-amp/porting/imx7d_m4/platform.c.obj
                0x000000001fff92fa                platform_deinit
 *fill*         0x000000001fff930a        0x2 
 .text.platform_get_processor_info
                0x000000001fff930c       0x68 CMakeFiles/rpmsg_str_echo_freertos_example.dir/home/neuberfran/projects/freertos-tn/middleware/multicore/open-amp/porting/imx7d_m4/platform_info.c.obj
                0x000000001fff930c                platform_get_processor_info
 .text.hil_create_proc
                0x000000001fff9374       0xb0 CMakeFiles/rpmsg_str_echo_freertos_example.dir/home/neuberfran/projects/freertos-tn/middleware/multicore/open-amp/common/hil/hil.c.obj
                0x000000001fff9374                hil_create_proc
 .text.hil_isr  0x000000001fff9424       0x1a CMakeFiles/rpmsg_str_echo_freertos_example.dir/home/neuberfran/projects/freertos-tn/middleware/multicore/open-amp/common/hil/hil.c.obj
                0x000000001fff9424                hil_isr
 .text.hil_get_chnl_info
                0x000000001fff943e       0x24 CMakeFiles/rpmsg_str_echo_freertos_example.dir/home/neuberfran/projects/freertos-tn/middleware/multicore/open-amp/common/hil/hil.c.obj
                0x000000001fff943e                hil_get_chnl_info
 .text.hil_get_vring_info
                0x000000001fff9462       0x24 CMakeFiles/rpmsg_str_echo_freertos_example.dir/home/neuberfran/projects/freertos-tn/middleware/multicore/open-amp/common/hil/hil.c.obj
                0x000000001fff9462                hil_get_vring_info
 .text.hil_get_shm_info
                0x000000001fff9486       0x18 CMakeFiles/rpmsg_str_echo_freertos_example.dir/home/neuberfran/projects/freertos-tn/middleware/multicore/open-amp/common/hil/hil.c.obj
                0x000000001fff9486                hil_get_shm_info
 .text.hil_enable_vring_notifications
                0x000000001fff949e       0x48 CMakeFiles/rpmsg_str_echo_freertos_example.dir/home/neuberfran/projects/freertos-tn/middleware/multicore/open-amp/common/hil/hil.c.obj
                0x000000001fff949e                hil_enable_vring_notifications
 .text.hil_vring_notify
                0x000000001fff94e6       0x4a CMakeFiles/rpmsg_str_echo_freertos_example.dir/home/neuberfran/projects/freertos-tn/middleware/multicore/open-amp/common/hil/hil.c.obj
                0x000000001fff94e6                hil_vring_notify
 .text.hil_get_status
                0x000000001fff9530       0x16 CMakeFiles/rpmsg_str_echo_freertos_example.dir/home/neuberfran/projects/freertos-tn/middleware/multicore/open-amp/common/hil/hil.c.obj
                0x000000001fff9530                hil_get_status
 .text.hil_set_status
                0x000000001fff9546       0x16 CMakeFiles/rpmsg_str_echo_freertos_example.dir/home/neuberfran/projects/freertos-tn/middleware/multicore/open-amp/common/hil/hil.c.obj
                0x000000001fff9546                hil_set_status
 .text.add_to_list
                0x000000001fff955c       0x5a CMakeFiles/rpmsg_str_echo_freertos_example.dir/home/neuberfran/projects/freertos-tn/middleware/multicore/open-amp/common/llist/llist.c.obj
                0x000000001fff955c                add_to_list
 .text.remove_from_list
                0x000000001fff95b6       0x64 CMakeFiles/rpmsg_str_echo_freertos_example.dir/home/neuberfran/projects/freertos-tn/middleware/multicore/open-amp/common/llist/llist.c.obj
                0x000000001fff95b6                remove_from_list
 .text.sh_mem_create_pool
                0x000000001fff961a       0xe4 CMakeFiles/rpmsg_str_echo_freertos_example.dir/home/neuberfran/projects/freertos-tn/middleware/multicore/open-amp/common/shm/sh_mem.c.obj
                0x000000001fff961a                sh_mem_create_pool
 .text.sh_mem_get_buffer
                0x000000001fff96fe       0xc6 CMakeFiles/rpmsg_str_echo_freertos_example.dir/home/neuberfran/projects/freertos-tn/middleware/multicore/open-amp/common/shm/sh_mem.c.obj
                0x000000001fff96fe                sh_mem_get_buffer
 .text.sh_mem_free_buffer
                0x000000001fff97c4       0x8e CMakeFiles/rpmsg_str_echo_freertos_example.dir/home/neuberfran/projects/freertos-tn/middleware/multicore/open-amp/common/shm/sh_mem.c.obj
                0x000000001fff97c4                sh_mem_free_buffer
 .text.sh_mem_delete_pool
                0x000000001fff9852       0x26 CMakeFiles/rpmsg_str_echo_freertos_example.dir/home/neuberfran/projects/freertos-tn/middleware/multicore/open-amp/common/shm/sh_mem.c.obj
                0x000000001fff9852                sh_mem_delete_pool
 .text.get_first_zero_bit
                0x000000001fff9878       0x74 CMakeFiles/rpmsg_str_echo_freertos_example.dir/home/neuberfran/projects/freertos-tn/middleware/multicore/open-amp/common/shm/sh_mem.c.obj
                0x000000001fff9878                get_first_zero_bit
 .text.vring_size
                0x000000001fff98ec       0x46 CMakeFiles/rpmsg_str_echo_freertos_example.dir/home/neuberfran/projects/freertos-tn/middleware/multicore/open-amp/rpmsg/remote_device.c.obj
 *fill*         0x000000001fff9932        0x2 
 .text.rpmsg_rdev_init
                0x000000001fff9934      0x100 CMakeFiles/rpmsg_str_echo_freertos_example.dir/home/neuberfran/projects/freertos-tn/middleware/multicore/open-amp/rpmsg/remote_device.c.obj
                0x000000001fff9934                rpmsg_rdev_init
 .text.rpmsg_rdev_deinit
                0x000000001fff9a34       0xda CMakeFiles/rpmsg_str_echo_freertos_example.dir/home/neuberfran/projects/freertos-tn/middleware/multicore/open-amp/rpmsg/remote_device.c.obj
                0x000000001fff9a34                rpmsg_rdev_deinit
 .text.rpmsg_rdev_get_chnl_node_from_id
                0x000000001fff9b0e       0x62 CMakeFiles/rpmsg_str_echo_freertos_example.dir/home/neuberfran/projects/freertos-tn/middleware/multicore/open-amp/rpmsg/remote_device.c.obj
                0x000000001fff9b0e                rpmsg_rdev_get_chnl_node_from_id
 .text.rpmsg_rdev_get_endpoint_from_addr
                0x000000001fff9b70       0x5a CMakeFiles/rpmsg_str_echo_freertos_example.dir/home/neuberfran/projects/freertos-tn/middleware/multicore/open-amp/rpmsg/remote_device.c.obj
                0x000000001fff9b70                rpmsg_rdev_get_endpoint_from_addr
 .text.rpmsg_rdev_notify
                0x000000001fff9bca       0x54 CMakeFiles/rpmsg_str_echo_freertos_example.dir/home/neuberfran/projects/freertos-tn/middleware/multicore/open-amp/rpmsg/remote_device.c.obj
                0x000000001fff9bca                rpmsg_rdev_notify
 *fill*         0x000000001fff9c1e        0x2 
 .text.rpmsg_rdev_init_channels
                0x000000001fff9c20       0x90 CMakeFiles/rpmsg_str_echo_freertos_example.dir/home/neuberfran/projects/freertos-tn/middleware/multicore/open-amp/rpmsg/remote_device.c.obj
 .text.rpmsg_rdev_create_virtqueues
                0x000000001fff9cb0      0x1a0 CMakeFiles/rpmsg_str_echo_freertos_example.dir/home/neuberfran/projects/freertos-tn/middleware/multicore/open-amp/rpmsg/remote_device.c.obj
                0x000000001fff9cb0                rpmsg_rdev_create_virtqueues
 .text.rpmsg_rdev_get_status
                0x000000001fff9e50       0x16 CMakeFiles/rpmsg_str_echo_freertos_example.dir/home/neuberfran/projects/freertos-tn/middleware/multicore/open-amp/rpmsg/remote_device.c.obj
                0x000000001fff9e50                rpmsg_rdev_get_status
 .text.rpmsg_rdev_set_status
                0x000000001fff9e66       0x18 CMakeFiles/rpmsg_str_echo_freertos_example.dir/home/neuberfran/projects/freertos-tn/middleware/multicore/open-amp/rpmsg/remote_device.c.obj
                0x000000001fff9e66                rpmsg_rdev_set_status
 .text.rpmsg_rdev_get_feature
                0x000000001fff9e7e       0x18 CMakeFiles/rpmsg_str_echo_freertos_example.dir/home/neuberfran/projects/freertos-tn/middleware/multicore/open-amp/rpmsg/remote_device.c.obj
                0x000000001fff9e7e                rpmsg_rdev_get_feature
 .text.rpmsg_rdev_set_feature
                0x000000001fff9e96       0x22 CMakeFiles/rpmsg_str_echo_freertos_example.dir/home/neuberfran/projects/freertos-tn/middleware/multicore/open-amp/rpmsg/remote_device.c.obj
                0x000000001fff9e96                rpmsg_rdev_set_feature
 .text.rpmsg_rdev_negotiate_feature
                0x000000001fff9eb8       0x18 CMakeFiles/rpmsg_str_echo_freertos_example.dir/home/neuberfran/projects/freertos-tn/middleware/multicore/open-amp/rpmsg/remote_device.c.obj
                0x000000001fff9eb8                rpmsg_rdev_negotiate_feature
 .text.rpmsg_rdev_read_config
                0x000000001fff9ed0       0x1a CMakeFiles/rpmsg_str_echo_freertos_example.dir/home/neuberfran/projects/freertos-tn/middleware/multicore/open-amp/rpmsg/remote_device.c.obj
                0x000000001fff9ed0                rpmsg_rdev_read_config
 .text.rpmsg_rdev_write_config
                0x000000001fff9eea       0x1a CMakeFiles/rpmsg_str_echo_freertos_example.dir/home/neuberfran/projects/freertos-tn/middleware/multicore/open-amp/rpmsg/remote_device.c.obj
                0x000000001fff9eea                rpmsg_rdev_write_config
 .text.rpmsg_rdev_reset
                0x000000001fff9f04       0x14 CMakeFiles/rpmsg_str_echo_freertos_example.dir/home/neuberfran/projects/freertos-tn/middleware/multicore/open-amp/rpmsg/remote_device.c.obj
                0x000000001fff9f04                rpmsg_rdev_reset
 .text.rpmsg_init
                0x000000001fff9f18       0x5c CMakeFiles/rpmsg_str_echo_freertos_example.dir/home/neuberfran/projects/freertos-tn/middleware/multicore/open-amp/rpmsg/rpmsg.c.obj
                0x000000001fff9f18                rpmsg_init
 .text.rpmsg_deinit
                0x000000001fff9f74       0x20 CMakeFiles/rpmsg_str_echo_freertos_example.dir/home/neuberfran/projects/freertos-tn/middleware/multicore/open-amp/rpmsg/rpmsg.c.obj
                0x000000001fff9f74                rpmsg_deinit
 .text.rpmsg_send_offchannel_raw
                0x000000001fff9f94      0x1c4 CMakeFiles/rpmsg_str_echo_freertos_example.dir/home/neuberfran/projects/freertos-tn/middleware/multicore/open-amp/rpmsg/rpmsg.c.obj
                0x000000001fff9f94                rpmsg_send_offchannel_raw
 .text.rpmsg_create_ept
                0x000000001fffa158       0x50 CMakeFiles/rpmsg_str_echo_freertos_example.dir/home/neuberfran/projects/freertos-tn/middleware/multicore/open-amp/rpmsg/rpmsg.c.obj
                0x000000001fffa158                rpmsg_create_ept
 .text.rpmsg_destroy_ept
                0x000000001fffa1a8       0x2c CMakeFiles/rpmsg_str_echo_freertos_example.dir/home/neuberfran/projects/freertos-tn/middleware/multicore/open-amp/rpmsg/rpmsg.c.obj
                0x000000001fffa1a8                rpmsg_destroy_ept
 .text.rpmsg_hold_rx_buffer
                0x000000001fffa1d4       0x3a CMakeFiles/rpmsg_str_echo_freertos_example.dir/home/neuberfran/projects/freertos-tn/middleware/multicore/open-amp/rpmsg/rpmsg_ext.c.obj
                0x000000001fffa1d4                rpmsg_hold_rx_buffer
 .text.rpmsg_release_rx_buffer
                0x000000001fffa20e       0x62 CMakeFiles/rpmsg_str_echo_freertos_example.dir/home/neuberfran/projects/freertos-tn/middleware/multicore/open-amp/rpmsg/rpmsg_ext.c.obj
                0x000000001fffa20e                rpmsg_release_rx_buffer
 .text.rpmsg_alloc_tx_buffer
                0x000000001fffa270       0xcc CMakeFiles/rpmsg_str_echo_freertos_example.dir/home/neuberfran/projects/freertos-tn/middleware/multicore/open-amp/rpmsg/rpmsg_ext.c.obj
                0x000000001fffa270                rpmsg_alloc_tx_buffer
 .text.rpmsg_send_offchannel_nocopy
                0x000000001fffa33c       0xa0 CMakeFiles/rpmsg_str_echo_freertos_example.dir/home/neuberfran/projects/freertos-tn/middleware/multicore/open-amp/rpmsg/rpmsg_ext.c.obj
                0x000000001fffa33c                rpmsg_send_offchannel_nocopy
 .text.rpmsg_send
                0x000000001fffa3dc       0x44 CMakeFiles/rpmsg_str_echo_freertos_example.dir/home/neuberfran/projects/freertos-tn/middleware/multicore/open-amp/rpmsg/rpmsg_core.c.obj
 .text.rpmsg_start_ipc
                0x000000001fffa420      0x114 CMakeFiles/rpmsg_str_echo_freertos_example.dir/home/neuberfran/projects/freertos-tn/middleware/multicore/open-amp/rpmsg/rpmsg_core.c.obj
                0x000000001fffa420                rpmsg_start_ipc
 .text._rpmsg_create_channel
                0x000000001fffa534       0x8c CMakeFiles/rpmsg_str_echo_freertos_example.dir/home/neuberfran/projects/freertos-tn/middleware/multicore/open-amp/rpmsg/rpmsg_core.c.obj
                0x000000001fffa534                _rpmsg_create_channel
 .text._rpmsg_delete_channel
                0x000000001fffa5c0       0x5e CMakeFiles/rpmsg_str_echo_freertos_example.dir/home/neuberfran/projects/freertos-tn/middleware/multicore/open-amp/rpmsg/rpmsg_core.c.obj
                0x000000001fffa5c0                _rpmsg_delete_channel
 *fill*         0x000000001fffa61e        0x2 
 .text._create_endpoint
                0x000000001fffa620       0xf0 CMakeFiles/rpmsg_str_echo_freertos_example.dir/home/neuberfran/projects/freertos-tn/middleware/multicore/open-amp/rpmsg/rpmsg_core.c.obj
                0x000000001fffa620                _create_endpoint
 .text._destroy_endpoint
                0x000000001fffa710       0x64 CMakeFiles/rpmsg_str_echo_freertos_example.dir/home/neuberfran/projects/freertos-tn/middleware/multicore/open-amp/rpmsg/rpmsg_core.c.obj
                0x000000001fffa710                _destroy_endpoint
 .text.rpmsg_send_ns_message
                0x000000001fffa774       0xa6 CMakeFiles/rpmsg_str_echo_freertos_example.dir/home/neuberfran/projects/freertos-tn/middleware/multicore/open-amp/rpmsg/rpmsg_core.c.obj
                0x000000001fffa774                rpmsg_send_ns_message
 .text.rpmsg_enqueue_buffer
                0x000000001fffa81a       0x58 CMakeFiles/rpmsg_str_echo_freertos_example.dir/home/neuberfran/projects/freertos-tn/middleware/multicore/open-amp/rpmsg/rpmsg_core.c.obj
                0x000000001fffa81a                rpmsg_enqueue_buffer
 .text.rpmsg_return_buffer
                0x000000001fffa872       0x52 CMakeFiles/rpmsg_str_echo_freertos_example.dir/home/neuberfran/projects/freertos-tn/middleware/multicore/open-amp/rpmsg/rpmsg_core.c.obj
                0x000000001fffa872                rpmsg_return_buffer
 .text.rpmsg_get_tx_buffer
                0x000000001fffa8c4       0x5e CMakeFiles/rpmsg_str_echo_freertos_example.dir/home/neuberfran/projects/freertos-tn/middleware/multicore/open-amp/rpmsg/rpmsg_core.c.obj
                0x000000001fffa8c4                rpmsg_get_tx_buffer
 .text.rpmsg_get_rx_buffer
                0x000000001fffa922       0x44 CMakeFiles/rpmsg_str_echo_freertos_example.dir/home/neuberfran/projects/freertos-tn/middleware/multicore/open-amp/rpmsg/rpmsg_core.c.obj
                0x000000001fffa922                rpmsg_get_rx_buffer
 .text.rpmsg_free_buffer
                0x000000001fffa966       0x26 CMakeFiles/rpmsg_str_echo_freertos_example.dir/home/neuberfran/projects/freertos-tn/middleware/multicore/open-amp/rpmsg/rpmsg_core.c.obj
                0x000000001fffa966                rpmsg_free_buffer
 .text.rpmsg_tx_callback
                0x000000001fffa98c       0x6c CMakeFiles/rpmsg_str_echo_freertos_example.dir/home/neuberfran/projects/freertos-tn/middleware/multicore/open-amp/rpmsg/rpmsg_core.c.obj
 .text.rpmsg_rx_callback
                0x000000001fffa9f8      0x178 CMakeFiles/rpmsg_str_echo_freertos_example.dir/home/neuberfran/projects/freertos-tn/middleware/multicore/open-amp/rpmsg/rpmsg_core.c.obj
 .text.rpmsg_ns_callback
                0x000000001fffab70       0xcc CMakeFiles/rpmsg_str_echo_freertos_example.dir/home/neuberfran/projects/freertos-tn/middleware/multicore/open-amp/rpmsg/rpmsg_core.c.obj
                0x000000001fffab70                rpmsg_ns_callback
 .text.rpmsg_get_address
                0x000000001fffac3c       0x74 CMakeFiles/rpmsg_str_echo_freertos_example.dir/home/neuberfran/projects/freertos-tn/middleware/multicore/open-amp/rpmsg/rpmsg_core.c.obj
                0x000000001fffac3c                rpmsg_get_address
 .text.rpmsg_release_address
                0x000000001fffacb0       0x70 CMakeFiles/rpmsg_str_echo_freertos_example.dir/home/neuberfran/projects/freertos-tn/middleware/multicore/open-amp/rpmsg/rpmsg_core.c.obj
                0x000000001fffacb0                rpmsg_release_address
 .text.rpmsg_is_address_set
                0x000000001fffad20       0x62 CMakeFiles/rpmsg_str_echo_freertos_example.dir/home/neuberfran/projects/freertos-tn/middleware/multicore/open-amp/rpmsg/rpmsg_core.c.obj
                0x000000001fffad20                rpmsg_is_address_set
 .text.rpmsg_set_address
                0x000000001fffad82       0x6e CMakeFiles/rpmsg_str_echo_freertos_example.dir/home/neuberfran/projects/freertos-tn/middleware/multicore/open-amp/rpmsg/rpmsg_core.c.obj
                0x000000001fffad82                rpmsg_set_address
 .text.vring_size
                0x000000001fffadf0       0x46 CMakeFiles/rpmsg_str_echo_freertos_example.dir/home/neuberfran/projects/freertos-tn/middleware/multicore/open-amp/virtio/virtqueue.c.obj
 .text.vring_init
                0x000000001fffae36       0x52 CMakeFiles/rpmsg_str_echo_freertos_example.dir/home/neuberfran/projects/freertos-tn/middleware/multicore/open-amp/virtio/virtqueue.c.obj
 .text.vring_need_event
                0x000000001fffae88       0x3c CMakeFiles/rpmsg_str_echo_freertos_example.dir/home/neuberfran/projects/freertos-tn/middleware/multicore/open-amp/virtio/virtqueue.c.obj
 .text.virtqueue_create
                0x000000001fffaec4       0xcc CMakeFiles/rpmsg_str_echo_freertos_example.dir/home/neuberfran/projects/freertos-tn/middleware/multicore/open-amp/virtio/virtqueue.c.obj
                0x000000001fffaec4                virtqueue_create
 .text.virtqueue_add_buffer
                0x000000001fffaf90       0x90 CMakeFiles/rpmsg_str_echo_freertos_example.dir/home/neuberfran/projects/freertos-tn/middleware/multicore/open-amp/virtio/virtqueue.c.obj
                0x000000001fffaf90                virtqueue_add_buffer
 .text.virtqueue_get_buffer
                0x000000001fffb020       0x9c CMakeFiles/rpmsg_str_echo_freertos_example.dir/home/neuberfran/projects/freertos-tn/middleware/multicore/open-amp/virtio/virtqueue.c.obj
                0x000000001fffb020                virtqueue_get_buffer
 .text.virtqueue_free
                0x000000001fffb0bc       0x30 CMakeFiles/rpmsg_str_echo_freertos_example.dir/home/neuberfran/projects/freertos-tn/middleware/multicore/open-amp/virtio/virtqueue.c.obj
                0x000000001fffb0bc                virtqueue_free
 .text.virtqueue_get_available_buffer
                0x000000001fffb0ec       0x90 CMakeFiles/rpmsg_str_echo_freertos_example.dir/home/neuberfran/projects/freertos-tn/middleware/multicore/open-amp/virtio/virtqueue.c.obj
                0x000000001fffb0ec                virtqueue_get_available_buffer
 .text.virtqueue_add_consumed_buffer
                0x000000001fffb17c       0x70 CMakeFiles/rpmsg_str_echo_freertos_example.dir/home/neuberfran/projects/freertos-tn/middleware/multicore/open-amp/virtio/virtqueue.c.obj
                0x000000001fffb17c                virtqueue_add_consumed_buffer
 .text.virtqueue_disable_cb
                0x000000001fffb1ec       0x56 CMakeFiles/rpmsg_str_echo_freertos_example.dir/home/neuberfran/projects/freertos-tn/middleware/multicore/open-amp/virtio/virtqueue.c.obj
                0x000000001fffb1ec                virtqueue_disable_cb
 .text.virtqueue_kick
                0x000000001fffb242       0x2e CMakeFiles/rpmsg_str_echo_freertos_example.dir/home/neuberfran/projects/freertos-tn/middleware/multicore/open-amp/virtio/virtqueue.c.obj
                0x000000001fffb242                virtqueue_kick
 .text.vq_ring_add_buffer
                0x000000001fffb270       0xaa CMakeFiles/rpmsg_str_echo_freertos_example.dir/home/neuberfran/projects/freertos-tn/middleware/multicore/open-amp/virtio/virtqueue.c.obj
 .text.vq_ring_free_chain
                0x000000001fffb31a       0x96 CMakeFiles/rpmsg_str_echo_freertos_example.dir/home/neuberfran/projects/freertos-tn/middleware/multicore/open-amp/virtio/virtqueue.c.obj
 .text.vq_ring_init
                0x000000001fffb3b0       0x6a CMakeFiles/rpmsg_str_echo_freertos_example.dir/home/neuberfran/projects/freertos-tn/middleware/multicore/open-amp/virtio/virtqueue.c.obj
 .text.vq_ring_update_avail
                0x000000001fffb41a       0x5a CMakeFiles/rpmsg_str_echo_freertos_example.dir/home/neuberfran/projects/freertos-tn/middleware/multicore/open-amp/virtio/virtqueue.c.obj
 .text.virtqueue_notification
                0x000000001fffb474       0x20 CMakeFiles/rpmsg_str_echo_freertos_example.dir/home/neuberfran/projects/freertos-tn/middleware/multicore/open-amp/virtio/virtqueue.c.obj
                0x000000001fffb474                virtqueue_notification
 .text.vq_ring_must_notify_host
                0x000000001fffb494       0x70 CMakeFiles/rpmsg_str_echo_freertos_example.dir/home/neuberfran/projects/freertos-tn/middleware/multicore/open-amp/virtio/virtqueue.c.obj
 .text.vq_ring_notify_host
                0x000000001fffb504       0x20 CMakeFiles/rpmsg_str_echo_freertos_example.dir/home/neuberfran/projects/freertos-tn/middleware/multicore/open-amp/virtio/virtqueue.c.obj
 .text.env_in_isr
                0x000000001fffb524        0xe CMakeFiles/rpmsg_str_echo_freertos_example.dir/home/neuberfran/projects/freertos-tn/middleware/multicore/open-amp/porting/env/freertos/rpmsg_porting.c.obj
                0x000000001fffb524                env_in_isr
 *fill*         0x000000001fffb532        0x2 
 .text.env_init
                0x000000001fffb534       0x64 CMakeFiles/rpmsg_str_echo_freertos_example.dir/home/neuberfran/projects/freertos-tn/middleware/multicore/open-amp/porting/env/freertos/rpmsg_porting.c.obj
                0x000000001fffb534                env_init
 .text.env_deinit
                0x000000001fffb598       0x64 CMakeFiles/rpmsg_str_echo_freertos_example.dir/home/neuberfran/projects/freertos-tn/middleware/multicore/open-amp/porting/env/freertos/rpmsg_porting.c.obj
                0x000000001fffb598                env_deinit
 .text.env_allocate_memory
                0x000000001fffb5fc       0x18 CMakeFiles/rpmsg_str_echo_freertos_example.dir/home/neuberfran/projects/freertos-tn/middleware/multicore/open-amp/porting/env/freertos/rpmsg_porting.c.obj
                0x000000001fffb5fc                env_allocate_memory
 .text.env_free_memory
                0x000000001fffb614       0x16 CMakeFiles/rpmsg_str_echo_freertos_example.dir/home/neuberfran/projects/freertos-tn/middleware/multicore/open-amp/porting/env/freertos/rpmsg_porting.c.obj
                0x000000001fffb614                env_free_memory
 .text.env_memset
                0x000000001fffb62a       0x1e CMakeFiles/rpmsg_str_echo_freertos_example.dir/home/neuberfran/projects/freertos-tn/middleware/multicore/open-amp/porting/env/freertos/rpmsg_porting.c.obj
                0x000000001fffb62a                env_memset
 .text.env_memcpy
                0x000000001fffb648       0x1e CMakeFiles/rpmsg_str_echo_freertos_example.dir/home/neuberfran/projects/freertos-tn/middleware/multicore/open-amp/porting/env/freertos/rpmsg_porting.c.obj
                0x000000001fffb648                env_memcpy
 .text.env_strncpy
                0x000000001fffb666       0x1e CMakeFiles/rpmsg_str_echo_freertos_example.dir/home/neuberfran/projects/freertos-tn/middleware/multicore/open-amp/porting/env/freertos/rpmsg_porting.c.obj
                0x000000001fffb666                env_strncpy
 .text.env_strncmp
                0x000000001fffb684       0x20 CMakeFiles/rpmsg_str_echo_freertos_example.dir/home/neuberfran/projects/freertos-tn/middleware/multicore/open-amp/porting/env/freertos/rpmsg_porting.c.obj
                0x000000001fffb684                env_strncmp
 .text.env_mb   0x000000001fffb6a4        0xe CMakeFiles/rpmsg_str_echo_freertos_example.dir/home/neuberfran/projects/freertos-tn/middleware/multicore/open-amp/porting/env/freertos/rpmsg_porting.c.obj
                0x000000001fffb6a4                env_mb
 .text.env_rmb  0x000000001fffb6b2        0xe CMakeFiles/rpmsg_str_echo_freertos_example.dir/home/neuberfran/projects/freertos-tn/middleware/multicore/open-amp/porting/env/freertos/rpmsg_porting.c.obj
                0x000000001fffb6b2                env_rmb
 .text.env_wmb  0x000000001fffb6c0        0xe CMakeFiles/rpmsg_str_echo_freertos_example.dir/home/neuberfran/projects/freertos-tn/middleware/multicore/open-amp/porting/env/freertos/rpmsg_porting.c.obj
                0x000000001fffb6c0                env_wmb
 .text.env_map_vatopa
                0x000000001fffb6ce       0x18 CMakeFiles/rpmsg_str_echo_freertos_example.dir/home/neuberfran/projects/freertos-tn/middleware/multicore/open-amp/porting/env/freertos/rpmsg_porting.c.obj
                0x000000001fffb6ce                env_map_vatopa
 .text.env_map_patova
                0x000000001fffb6e6       0x18 CMakeFiles/rpmsg_str_echo_freertos_example.dir/home/neuberfran/projects/freertos-tn/middleware/multicore/open-amp/porting/env/freertos/rpmsg_porting.c.obj
                0x000000001fffb6e6                env_map_patova
 .text.env_create_mutex
                0x000000001fffb6fe       0x32 CMakeFiles/rpmsg_str_echo_freertos_example.dir/home/neuberfran/projects/freertos-tn/middleware/multicore/open-amp/porting/env/freertos/rpmsg_porting.c.obj
                0x000000001fffb6fe                env_create_mutex
 .text.env_delete_mutex
                0x000000001fffb730       0x16 CMakeFiles/rpmsg_str_echo_freertos_example.dir/home/neuberfran/projects/freertos-tn/middleware/multicore/open-amp/porting/env/freertos/rpmsg_porting.c.obj
                0x000000001fffb730                env_delete_mutex
 .text.env_lock_mutex
                0x000000001fffb746       0x30 CMakeFiles/rpmsg_str_echo_freertos_example.dir/home/neuberfran/projects/freertos-tn/middleware/multicore/open-amp/porting/env/freertos/rpmsg_porting.c.obj
                0x000000001fffb746                env_lock_mutex
 .text.env_unlock_mutex
                0x000000001fffb776       0x2e CMakeFiles/rpmsg_str_echo_freertos_example.dir/home/neuberfran/projects/freertos-tn/middleware/multicore/open-amp/porting/env/freertos/rpmsg_porting.c.obj
                0x000000001fffb776                env_unlock_mutex
 .text.env_create_sync_lock
                0x000000001fffb7a4       0x1c CMakeFiles/rpmsg_str_echo_freertos_example.dir/home/neuberfran/projects/freertos-tn/middleware/multicore/open-amp/porting/env/freertos/rpmsg_porting.c.obj
                0x000000001fffb7a4                env_create_sync_lock
 .text.env_delete_sync_lock
                0x000000001fffb7c0       0x1c CMakeFiles/rpmsg_str_echo_freertos_example.dir/home/neuberfran/projects/freertos-tn/middleware/multicore/open-amp/porting/env/freertos/rpmsg_porting.c.obj
                0x000000001fffb7c0                env_delete_sync_lock
 .text.env_acquire_sync_lock
                0x000000001fffb7dc       0x54 CMakeFiles/rpmsg_str_echo_freertos_example.dir/home/neuberfran/projects/freertos-tn/middleware/multicore/open-amp/porting/env/freertos/rpmsg_porting.c.obj
                0x000000001fffb7dc                env_acquire_sync_lock
 .text.env_release_sync_lock
                0x000000001fffb830       0x50 CMakeFiles/rpmsg_str_echo_freertos_example.dir/home/neuberfran/projects/freertos-tn/middleware/multicore/open-amp/porting/env/freertos/rpmsg_porting.c.obj
                0x000000001fffb830                env_release_sync_lock
 .text.env_sleep_msec
                0x000000001fffb880       0x18 CMakeFiles/rpmsg_str_echo_freertos_example.dir/home/neuberfran/projects/freertos-tn/middleware/multicore/open-amp/porting/env/freertos/rpmsg_porting.c.obj
                0x000000001fffb880                env_sleep_msec
 .text.env_register_isr
                0x000000001fffb898       0x68 CMakeFiles/rpmsg_str_echo_freertos_example.dir/home/neuberfran/projects/freertos-tn/middleware/multicore/open-amp/porting/env/freertos/rpmsg_porting.c.obj
                0x000000001fffb898                env_register_isr
 .text.env_enable_interrupt
                0x000000001fffb900       0x70 CMakeFiles/rpmsg_str_echo_freertos_example.dir/home/neuberfran/projects/freertos-tn/middleware/multicore/open-amp/porting/env/freertos/rpmsg_porting.c.obj
                0x000000001fffb900                env_enable_interrupt
 .text.env_disable_interrupt
                0x000000001fffb970       0x16 CMakeFiles/rpmsg_str_echo_freertos_example.dir/home/neuberfran/projects/freertos-tn/middleware/multicore/open-amp/porting/env/freertos/rpmsg_porting.c.obj
                0x000000001fffb970                env_disable_interrupt
 .text.env_map_memory
                0x000000001fffb986       0x22 CMakeFiles/rpmsg_str_echo_freertos_example.dir/home/neuberfran/projects/freertos-tn/middleware/multicore/open-amp/porting/env/freertos/rpmsg_porting.c.obj
                0x000000001fffb986                env_map_memory
 .text.env_isr  0x000000001fffb9a8       0x94 CMakeFiles/rpmsg_str_echo_freertos_example.dir/home/neuberfran/projects/freertos-tn/middleware/multicore/open-amp/porting/env/freertos/rpmsg_porting.c.obj
                0x000000001fffb9a8                env_isr
 .text.env_create_queue
                0x000000001fffba3c       0x36 CMakeFiles/rpmsg_str_echo_freertos_example.dir/home/neuberfran/projects/freertos-tn/middleware/multicore/open-amp/porting/env/freertos/rpmsg_porting.c.obj
                0x000000001fffba3c                env_create_queue
 *fill*         0x000000001fffba72        0x2 
 .text.env_put_queue
                0x000000001fffba74       0x70 CMakeFiles/rpmsg_str_echo_freertos_example.dir/home/neuberfran/projects/freertos-tn/middleware/multicore/open-amp/porting/env/freertos/rpmsg_porting.c.obj
                0x000000001fffba74                env_put_queue
 .text.env_get_queue
                0x000000001fffbae4       0x70 CMakeFiles/rpmsg_str_echo_freertos_example.dir/home/neuberfran/projects/freertos-tn/middleware/multicore/open-amp/porting/env/freertos/rpmsg_porting.c.obj
                0x000000001fffbae4                env_get_queue
 .text.vListInitialise
                0x000000001fffbb54       0x40 CMakeFiles/rpmsg_str_echo_freertos_example.dir/home/neuberfran/projects/freertos-tn/rtos/FreeRTOS/Source/list.c.obj
                0x000000001fffbb54                vListInitialise
 .text.vListInitialiseItem
                0x000000001fffbb94       0x1a CMakeFiles/rpmsg_str_echo_freertos_example.dir/home/neuberfran/projects/freertos-tn/rtos/FreeRTOS/Source/list.c.obj
                0x000000001fffbb94                vListInitialiseItem
 .text.vListInsertEnd
                0x000000001fffbbae       0x48 CMakeFiles/rpmsg_str_echo_freertos_example.dir/home/neuberfran/projects/freertos-tn/rtos/FreeRTOS/Source/list.c.obj
                0x000000001fffbbae                vListInsertEnd
 .text.vListInsert
                0x000000001fffbbf6       0x72 CMakeFiles/rpmsg_str_echo_freertos_example.dir/home/neuberfran/projects/freertos-tn/rtos/FreeRTOS/Source/list.c.obj
                0x000000001fffbbf6                vListInsert
 .text.uxListRemove
                0x000000001fffbc68       0x54 CMakeFiles/rpmsg_str_echo_freertos_example.dir/home/neuberfran/projects/freertos-tn/rtos/FreeRTOS/Source/list.c.obj
                0x000000001fffbc68                uxListRemove
 .text.xQueueGenericReset
                0x000000001fffbcbc       0xb0 CMakeFiles/rpmsg_str_echo_freertos_example.dir/home/neuberfran/projects/freertos-tn/rtos/FreeRTOS/Source/queue.c.obj
                0x000000001fffbcbc                xQueueGenericReset
 .text.xQueueGenericCreate
                0x000000001fffbd6c       0x7c CMakeFiles/rpmsg_str_echo_freertos_example.dir/home/neuberfran/projects/freertos-tn/rtos/FreeRTOS/Source/queue.c.obj
                0x000000001fffbd6c                xQueueGenericCreate
 .text.xQueueCreateCountingSemaphore
                0x000000001fffbde8       0x52 CMakeFiles/rpmsg_str_echo_freertos_example.dir/home/neuberfran/projects/freertos-tn/rtos/FreeRTOS/Source/queue.c.obj
                0x000000001fffbde8                xQueueCreateCountingSemaphore
 .text.xQueueGenericSend
                0x000000001fffbe3a      0x158 CMakeFiles/rpmsg_str_echo_freertos_example.dir/home/neuberfran/projects/freertos-tn/rtos/FreeRTOS/Source/queue.c.obj
                0x000000001fffbe3a                xQueueGenericSend
 .text.xQueueGenericSendFromISR
                0x000000001fffbf92       0xd4 CMakeFiles/rpmsg_str_echo_freertos_example.dir/home/neuberfran/projects/freertos-tn/rtos/FreeRTOS/Source/queue.c.obj
                0x000000001fffbf92                xQueueGenericSendFromISR
 .text.xQueueGenericReceive
                0x000000001fffc066      0x16a CMakeFiles/rpmsg_str_echo_freertos_example.dir/home/neuberfran/projects/freertos-tn/rtos/FreeRTOS/Source/queue.c.obj
                0x000000001fffc066                xQueueGenericReceive
 .text.xQueueReceiveFromISR
                0x000000001fffc1d0       0xb2 CMakeFiles/rpmsg_str_echo_freertos_example.dir/home/neuberfran/projects/freertos-tn/rtos/FreeRTOS/Source/queue.c.obj
                0x000000001fffc1d0                xQueueReceiveFromISR
 .text.vQueueDelete
                0x000000001fffc282       0x3e CMakeFiles/rpmsg_str_echo_freertos_example.dir/home/neuberfran/projects/freertos-tn/rtos/FreeRTOS/Source/queue.c.obj
                0x000000001fffc282                vQueueDelete
 .text.prvCopyDataToQueue
                0x000000001fffc2c0       0xb4 CMakeFiles/rpmsg_str_echo_freertos_example.dir/home/neuberfran/projects/freertos-tn/rtos/FreeRTOS/Source/queue.c.obj
 .text.prvCopyDataFromQueue
                0x000000001fffc374       0x4c CMakeFiles/rpmsg_str_echo_freertos_example.dir/home/neuberfran/projects/freertos-tn/rtos/FreeRTOS/Source/queue.c.obj
 .text.prvUnlockQueue
                0x000000001fffc3c0       0x98 CMakeFiles/rpmsg_str_echo_freertos_example.dir/home/neuberfran/projects/freertos-tn/rtos/FreeRTOS/Source/queue.c.obj
 .text.prvIsQueueEmpty
                0x000000001fffc458       0x2c CMakeFiles/rpmsg_str_echo_freertos_example.dir/home/neuberfran/projects/freertos-tn/rtos/FreeRTOS/Source/queue.c.obj
 .text.prvIsQueueFull
                0x000000001fffc484       0x30 CMakeFiles/rpmsg_str_echo_freertos_example.dir/home/neuberfran/projects/freertos-tn/rtos/FreeRTOS/Source/queue.c.obj
 .text.vQueueUnregisterQueue
                0x000000001fffc4b4       0x48 CMakeFiles/rpmsg_str_echo_freertos_example.dir/home/neuberfran/projects/freertos-tn/rtos/FreeRTOS/Source/queue.c.obj
                0x000000001fffc4b4                vQueueUnregisterQueue
 .text.xTaskGenericCreate
                0x000000001fffc4fc      0x160 CMakeFiles/rpmsg_str_echo_freertos_example.dir/home/neuberfran/projects/freertos-tn/rtos/FreeRTOS/Source/tasks.c.obj
                0x000000001fffc4fc                xTaskGenericCreate
 .text.vTaskDelay
                0x000000001fffc65c       0x64 CMakeFiles/rpmsg_str_echo_freertos_example.dir/home/neuberfran/projects/freertos-tn/rtos/FreeRTOS/Source/tasks.c.obj
                0x000000001fffc65c                vTaskDelay
 .text.vTaskStartScheduler
                0x000000001fffc6c0       0x64 CMakeFiles/rpmsg_str_echo_freertos_example.dir/home/neuberfran/projects/freertos-tn/rtos/FreeRTOS/Source/tasks.c.obj
                0x000000001fffc6c0                vTaskStartScheduler
 .text.vTaskSuspendAll
                0x000000001fffc724       0x1c CMakeFiles/rpmsg_str_echo_freertos_example.dir/home/neuberfran/projects/freertos-tn/rtos/FreeRTOS/Source/tasks.c.obj
                0x000000001fffc724                vTaskSuspendAll
 .text.xTaskResumeAll
                0x000000001fffc740      0x10c CMakeFiles/rpmsg_str_echo_freertos_example.dir/home/neuberfran/projects/freertos-tn/rtos/FreeRTOS/Source/tasks.c.obj
                0x000000001fffc740                xTaskResumeAll
 .text.xTaskIncrementTick
                0x000000001fffc84c      0x170 CMakeFiles/rpmsg_str_echo_freertos_example.dir/home/neuberfran/projects/freertos-tn/rtos/FreeRTOS/Source/tasks.c.obj
                0x000000001fffc84c                xTaskIncrementTick
 .text.vTaskSwitchContext
                0x000000001fffc9bc       0xa4 CMakeFiles/rpmsg_str_echo_freertos_example.dir/home/neuberfran/projects/freertos-tn/rtos/FreeRTOS/Source/tasks.c.obj
                0x000000001fffc9bc                vTaskSwitchContext
 .text.vTaskPlaceOnEventList
                0x000000001fffca60       0x6c CMakeFiles/rpmsg_str_echo_freertos_example.dir/home/neuberfran/projects/freertos-tn/rtos/FreeRTOS/Source/tasks.c.obj
                0x000000001fffca60                vTaskPlaceOnEventList
 .text.xTaskRemoveFromEventList
                0x000000001fffcacc       0xb8 CMakeFiles/rpmsg_str_echo_freertos_example.dir/home/neuberfran/projects/freertos-tn/rtos/FreeRTOS/Source/tasks.c.obj
                0x000000001fffcacc                xTaskRemoveFromEventList
 .text.vTaskSetTimeOutState
                0x000000001fffcb84       0x34 CMakeFiles/rpmsg_str_echo_freertos_example.dir/home/neuberfran/projects/freertos-tn/rtos/FreeRTOS/Source/tasks.c.obj
                0x000000001fffcb84                vTaskSetTimeOutState
 .text.xTaskCheckForTimeOut
                0x000000001fffcbb8       0xa0 CMakeFiles/rpmsg_str_echo_freertos_example.dir/home/neuberfran/projects/freertos-tn/rtos/FreeRTOS/Source/tasks.c.obj
                0x000000001fffcbb8                xTaskCheckForTimeOut
 .text.vTaskMissedYield
                0x000000001fffcc58       0x18 CMakeFiles/rpmsg_str_echo_freertos_example.dir/home/neuberfran/projects/freertos-tn/rtos/FreeRTOS/Source/tasks.c.obj
                0x000000001fffcc58                vTaskMissedYield
 .text.prvIdleTask
                0x000000001fffcc70        0xe CMakeFiles/rpmsg_str_echo_freertos_example.dir/home/neuberfran/projects/freertos-tn/rtos/FreeRTOS/Source/tasks.c.obj
 .text.prvInitialiseTCBVariables
                0x000000001fffcc7e       0x8e CMakeFiles/rpmsg_str_echo_freertos_example.dir/home/neuberfran/projects/freertos-tn/rtos/FreeRTOS/Source/tasks.c.obj
 .text.prvInitialiseTaskLists
                0x000000001fffcd0c       0x74 CMakeFiles/rpmsg_str_echo_freertos_example.dir/home/neuberfran/projects/freertos-tn/rtos/FreeRTOS/Source/tasks.c.obj
 .text.prvCheckTasksWaitingTermination
                0x000000001fffcd80        0xe CMakeFiles/rpmsg_str_echo_freertos_example.dir/home/neuberfran/projects/freertos-tn/rtos/FreeRTOS/Source/tasks.c.obj
 *fill*         0x000000001fffcd8e        0x2 
 .text.prvAddCurrentTaskToDelayedList
                0x000000001fffcd90       0x6c CMakeFiles/rpmsg_str_echo_freertos_example.dir/home/neuberfran/projects/freertos-tn/rtos/FreeRTOS/Source/tasks.c.obj
 .text.prvAllocateTCBAndStack
                0x000000001fffcdfc       0x50 CMakeFiles/rpmsg_str_echo_freertos_example.dir/home/neuberfran/projects/freertos-tn/rtos/FreeRTOS/Source/tasks.c.obj
 .text.prvResetNextTaskUnblockTime
                0x000000001fffce4c       0x4c CMakeFiles/rpmsg_str_echo_freertos_example.dir/home/neuberfran/projects/freertos-tn/rtos/FreeRTOS/Source/tasks.c.obj
 .text.CCM_ANALOG_IsPllBypassed
                0x000000001fffce98       0x2e CMakeFiles/rpmsg_str_echo_freertos_example.dir/home/neuberfran/projects/freertos-tn/platform/drivers/src/ccm_analog_imx7d.c.obj
 *fill*         0x000000001fffcec6        0x2 
 .text.CCM_ANALOG_GetSysPllFreq
                0x000000001fffcec8       0x4c CMakeFiles/rpmsg_str_echo_freertos_example.dir/home/neuberfran/projects/freertos-tn/platform/drivers/src/ccm_analog_imx7d.c.obj
                0x000000001fffcec8                CCM_ANALOG_GetSysPllFreq
 .text.CCM_GetRootDivider
                0x000000001fffcf14       0x54 CMakeFiles/rpmsg_str_echo_freertos_example.dir/home/neuberfran/projects/freertos-tn/platform/drivers/src/ccm_imx7d.c.obj
                0x000000001fffcf14                CCM_GetRootDivider
 .text.CCM_UpdateRoot
                0x000000001fffcf68       0x78 CMakeFiles/rpmsg_str_echo_freertos_example.dir/home/neuberfran/projects/freertos-tn/platform/drivers/src/ccm_imx7d.c.obj
                0x000000001fffcf68                CCM_UpdateRoot
 .text.UART_Enable
                0x000000001fffcfe0       0x24 CMakeFiles/rpmsg_str_echo_freertos_example.dir/home/neuberfran/projects/freertos-tn/platform/utilities/src/debug_console_imx.c.obj
 .text.UART_Putchar
                0x000000001fffd004       0x1e CMakeFiles/rpmsg_str_echo_freertos_example.dir/home/neuberfran/projects/freertos-tn/platform/utilities/src/debug_console_imx.c.obj
 .text.UART_Getchar
                0x000000001fffd022       0x1a CMakeFiles/rpmsg_str_echo_freertos_example.dir/home/neuberfran/projects/freertos-tn/platform/utilities/src/debug_console_imx.c.obj
 .text.DbgConsole_Init
                0x000000001fffd03c       0x78 CMakeFiles/rpmsg_str_echo_freertos_example.dir/home/neuberfran/projects/freertos-tn/platform/utilities/src/debug_console_imx.c.obj
                0x000000001fffd03c                DbgConsole_Init
 .text._write   0x000000001fffd0b4       0x5c CMakeFiles/rpmsg_str_echo_freertos_example.dir/home/neuberfran/projects/freertos-tn/platform/utilities/src/debug_console_imx.c.obj
                0x000000001fffd0b4                _write
 .text._read    0x000000001fffd110       0x48 CMakeFiles/rpmsg_str_echo_freertos_example.dir/home/neuberfran/projects/freertos-tn/platform/utilities/src/debug_console_imx.c.obj
                0x000000001fffd110                _read
 .text.debug_printf
                0x000000001fffd158       0x50 CMakeFiles/rpmsg_str_echo_freertos_example.dir/home/neuberfran/projects/freertos-tn/platform/utilities/src/debug_console_imx.c.obj
                0x000000001fffd158                debug_printf
 .text.debug_putc
                0x000000001fffd1a8       0x44 CMakeFiles/rpmsg_str_echo_freertos_example.dir/home/neuberfran/projects/freertos-tn/platform/utilities/src/debug_console_imx.c.obj
 .text.UART_SendDataPolling
                0x000000001fffd1ec       0x68 CMakeFiles/rpmsg_str_echo_freertos_example.dir/home/neuberfran/projects/freertos-tn/platform/utilities/src/debug_console_imx.c.obj
 .text.UART_ReceiveDataPolling
                0x000000001fffd254       0x4e CMakeFiles/rpmsg_str_echo_freertos_example.dir/home/neuberfran/projects/freertos-tn/platform/utilities/src/debug_console_imx.c.obj
 *fill*         0x000000001fffd2a2        0x2 
 .text._doprint
                0x000000001fffd2a4      0x74c CMakeFiles/rpmsg_str_echo_freertos_example.dir/home/neuberfran/projects/freertos-tn/platform/utilities/src/print_scan.c.obj
                0x000000001fffd2a4                _doprint
 .text.mknumstr
                0x000000001fffd9f0      0x10e CMakeFiles/rpmsg_str_echo_freertos_example.dir/home/neuberfran/projects/freertos-tn/platform/utilities/src/print_scan.c.obj
 .text.fput_pad
                0x000000001fffdafe       0x44 CMakeFiles/rpmsg_str_echo_freertos_example.dir/home/neuberfran/projects/freertos-tn/platform/utilities/src/print_scan.c.obj
 *fill*         0x000000001fffdb42        0x2 
 .text.SystemInit
                0x000000001fffdb44      0x14c CMakeFiles/rpmsg_str_echo_freertos_example.dir/home/neuberfran/projects/freertos-tn/platform/devices/MCIMX7D/startup/system_MCIMX7D_M4.c.obj
                0x000000001fffdb44                SystemInit
 .text.configure_uart_pins
                0x000000001fffdc90       0xbc CMakeFiles/rpmsg_str_echo_freertos_example.dir/home/neuberfran/projects/freertos-tn/examples/imx7d_pico_m4/pin_mux.c.obj
                0x000000001fffdc90                configure_uart_pins
 .text.RDC_SetDomainID
                0x000000001fffdd4c       0x58 CMakeFiles/rpmsg_str_echo_freertos_example.dir/home/neuberfran/projects/freertos-tn/examples/imx7d_pico_m4/board.c.obj
 .text.RDC_SetPdapAccess
                0x000000001fffdda4       0x52 CMakeFiles/rpmsg_str_echo_freertos_example.dir/home/neuberfran/projects/freertos-tn/examples/imx7d_pico_m4/board.c.obj
 .text.CCM_EnableRoot
                0x000000001fffddf6       0x22 CMakeFiles/rpmsg_str_echo_freertos_example.dir/home/neuberfran/projects/freertos-tn/examples/imx7d_pico_m4/board.c.obj
 .text.CCM_ControlGate
                0x000000001fffde18       0x1e CMakeFiles/rpmsg_str_echo_freertos_example.dir/home/neuberfran/projects/freertos-tn/examples/imx7d_pico_m4/board.c.obj
 .text.WDOG_DisablePowerdown
                0x000000001fffde36       0x24 CMakeFiles/rpmsg_str_echo_freertos_example.dir/home/neuberfran/projects/freertos-tn/examples/imx7d_pico_m4/board.c.obj
 *fill*         0x000000001fffde5a        0x2 
 .text.BOARD_ClockInit
                0x000000001fffde5c       0xe4 CMakeFiles/rpmsg_str_echo_freertos_example.dir/home/neuberfran/projects/freertos-tn/examples/imx7d_pico_m4/board.c.obj
                0x000000001fffde5c                BOARD_ClockInit
 .text.dbg_uart_init
                0x000000001fffdf40       0x70 CMakeFiles/rpmsg_str_echo_freertos_example.dir/home/neuberfran/projects/freertos-tn/examples/imx7d_pico_m4/board.c.obj
                0x000000001fffdf40                dbg_uart_init
 .text.BOARD_RdcInit
                0x000000001fffdfb0       0x18 CMakeFiles/rpmsg_str_echo_freertos_example.dir/home/neuberfran/projects/freertos-tn/examples/imx7d_pico_m4/board.c.obj
                0x000000001fffdfb0                BOARD_RdcInit
 .text.CCM_GetRootMux
                0x000000001fffdfc8       0x20 CMakeFiles/rpmsg_str_echo_freertos_example.dir/home/neuberfran/projects/freertos-tn/examples/imx7d_pico_m4/clock_freq.c.obj
 .text.get_uart_clock_freq
                0x000000001fffdfe8       0xf8 CMakeFiles/rpmsg_str_echo_freertos_example.dir/home/neuberfran/projects/freertos-tn/examples/imx7d_pico_m4/clock_freq.c.obj
                0x000000001fffdfe8                get_uart_clock_freq
 .text.RDC_SetPdapAccess
                0x000000001fffe0e0       0x52 CMakeFiles/rpmsg_str_echo_freertos_example.dir/home/neuberfran/projects/freertos-tn/examples/imx7d_pico_m4/demo_apps/rpmsg/str_echo_freertos/hardware_init.c.obj
 .text.CCM_ControlGate
                0x000000001fffe132       0x1e CMakeFiles/rpmsg_str_echo_freertos_example.dir/home/neuberfran/projects/freertos-tn/examples/imx7d_pico_m4/demo_apps/rpmsg/str_echo_freertos/hardware_init.c.obj
 .text.hardware_init
                0x000000001fffe150       0x40 CMakeFiles/rpmsg_str_echo_freertos_example.dir/home/neuberfran/projects/freertos-tn/examples/imx7d_pico_m4/demo_apps/rpmsg/str_echo_freertos/hardware_init.c.obj
                0x000000001fffe150                hardware_init
 .text.UART_Init
                0x000000001fffe190       0x90 CMakeFiles/rpmsg_str_echo_freertos_example.dir/home/neuberfran/projects/freertos-tn/platform/drivers/src/uart_imx.c.obj
                0x000000001fffe190                UART_Init
 .text.UART_Deinit
                0x000000001fffe220       0x9c CMakeFiles/rpmsg_str_echo_freertos_example.dir/home/neuberfran/projects/freertos-tn/platform/drivers/src/uart_imx.c.obj
                0x000000001fffe220                UART_Deinit
 .text.UART_SetBaudRate
                0x000000001fffe2bc      0x1a0 CMakeFiles/rpmsg_str_echo_freertos_example.dir/home/neuberfran/projects/freertos-tn/platform/drivers/src/uart_imx.c.obj
                0x000000001fffe2bc                UART_SetBaudRate
 .text.UART_GetStatusFlag
                0x000000001fffe45c       0x3e CMakeFiles/rpmsg_str_echo_freertos_example.dir/home/neuberfran/projects/freertos-tn/platform/drivers/src/uart_imx.c.obj
                0x000000001fffe45c                UART_GetStatusFlag
 .text.MU_IsRxFull
                0x000000001fffe49a       0x30 CMakeFiles/rpmsg_str_echo_freertos_example.dir/home/neuberfran/projects/freertos-tn/platform/drivers/src/mu_imx.c.obj
 *fill*         0x000000001fffe4ca        0x2 
 .text.MU_SendMsg
                0x000000001fffe4cc       0x58 CMakeFiles/rpmsg_str_echo_freertos_example.dir/home/neuberfran/projects/freertos-tn/platform/drivers/src/mu_imx.c.obj
                0x000000001fffe4cc                MU_SendMsg
 .text.MU_TryReceiveMsg
                0x000000001fffe524       0x54 CMakeFiles/rpmsg_str_echo_freertos_example.dir/home/neuberfran/projects/freertos-tn/platform/drivers/src/mu_imx.c.obj
                0x000000001fffe524                MU_TryReceiveMsg
 .text.__assert_func
                0x000000001fffe578       0x3c /home/neuberfran/neuber/gcc-arm-none-eabi-10.3-2021.10/bin/../lib/gcc/arm-none-eabi/10.3.1/../../../../arm-none-eabi/lib/thumb/v7e-m+fp/hard/libc_nano.a(lib_a-assert.o)
                0x000000001fffe578                __assert_func
 .text.exit     0x000000001fffe5b4       0x28 /home/neuberfran/neuber/gcc-arm-none-eabi-10.3-2021.10/bin/../lib/gcc/arm-none-eabi/10.3.1/../../../../arm-none-eabi/lib/thumb/v7e-m+fp/hard/libc_nano.a(lib_a-exit.o)
                0x000000001fffe5b4                exit
 .text.fprintf  0x000000001fffe5dc       0x24 /home/neuberfran/neuber/gcc-arm-none-eabi-10.3-2021.10/bin/../lib/gcc/arm-none-eabi/10.3.1/../../../../arm-none-eabi/lib/thumb/v7e-m+fp/hard/libc_nano.a(lib_a-fprintf.o)
                0x000000001fffe5dc                fprintf
                0x000000001fffe5dc                fiprintf
 .text.__libc_init_array
                0x000000001fffe600       0x48 /home/neuberfran/neuber/gcc-arm-none-eabi-10.3-2021.10/bin/../lib/gcc/arm-none-eabi/10.3.1/../../../../arm-none-eabi/lib/thumb/v7e-m+fp/hard/libc_nano.a(lib_a-init.o)
                0x000000001fffe600                __libc_init_array
 .text.memcpy   0x000000001fffe648       0x1c /home/neuberfran/neuber/gcc-arm-none-eabi-10.3-2021.10/bin/../lib/gcc/arm-none-eabi/10.3.1/../../../../arm-none-eabi/lib/thumb/v7e-m+fp/hard/libc_nano.a(lib_a-memcpy-stub.o)
                0x000000001fffe648                memcpy
 .text.memset   0x000000001fffe664       0x10 /home/neuberfran/neuber/gcc-arm-none-eabi-10.3-2021.10/bin/../lib/gcc/arm-none-eabi/10.3.1/../../../../arm-none-eabi/lib/thumb/v7e-m+fp/hard/libc_nano.a(lib_a-memset.o)
                0x000000001fffe664                memset
 .text.__sfputc_r
                0x000000001fffe674       0x2e /home/neuberfran/neuber/gcc-arm-none-eabi-10.3-2021.10/bin/../lib/gcc/arm-none-eabi/10.3.1/../../../../arm-none-eabi/lib/thumb/v7e-m+fp/hard/libc_nano.a(lib_a-nano-vfprintf.o)
 .text.__sfputs_r
                0x000000001fffe6a2       0x24 /home/neuberfran/neuber/gcc-arm-none-eabi-10.3-2021.10/bin/../lib/gcc/arm-none-eabi/10.3.1/../../../../arm-none-eabi/lib/thumb/v7e-m+fp/hard/libc_nano.a(lib_a-nano-vfprintf.o)
                0x000000001fffe6a2                __sfputs_r
 *fill*         0x000000001fffe6c6        0x2 
 .text._vfprintf_r
                0x000000001fffe6c8      0x260 /home/neuberfran/neuber/gcc-arm-none-eabi-10.3-2021.10/bin/../lib/gcc/arm-none-eabi/10.3.1/../../../../arm-none-eabi/lib/thumb/v7e-m+fp/hard/libc_nano.a(lib_a-nano-vfprintf.o)
                0x000000001fffe6c8                _vfiprintf_r
                0x000000001fffe6c8                _vfprintf_r
 .text._printf_common
                0x000000001fffe928       0xda /home/neuberfran/neuber/gcc-arm-none-eabi-10.3-2021.10/bin/../lib/gcc/arm-none-eabi/10.3.1/../../../../arm-none-eabi/lib/thumb/v7e-m+fp/hard/libc_nano.a(lib_a-nano-vfprintf_i.o)
                0x000000001fffe928                _printf_common
 *fill*         0x000000001fffea02        0x2 
 .text._printf_i
                0x000000001fffea04      0x24c /home/neuberfran/neuber/gcc-arm-none-eabi-10.3-2021.10/bin/../lib/gcc/arm-none-eabi/10.3.1/../../../../arm-none-eabi/lib/thumb/v7e-m+fp/hard/libc_nano.a(lib_a-nano-vfprintf_i.o)
                0x000000001fffea04                _printf_i
 .text.strncmp  0x000000001fffec50       0x28 /home/neuberfran/neuber/gcc-arm-none-eabi-10.3-2021.10/bin/../lib/gcc/arm-none-eabi/10.3.1/../../../../arm-none-eabi/lib/thumb/v7e-m+fp/hard/libc_nano.a(lib_a-strncmp.o)
                0x000000001fffec50                strncmp
 .text.strncpy  0x000000001fffec78       0x26 /home/neuberfran/neuber/gcc-arm-none-eabi-10.3-2021.10/bin/../lib/gcc/arm-none-eabi/10.3.1/../../../../arm-none-eabi/lib/thumb/v7e-m+fp/hard/libc_nano.a(lib_a-strncpy.o)
                0x000000001fffec78                strncpy
 *fill*         0x000000001fffec9e        0x2 
 .text.__swbuf_r
                0x000000001fffeca0       0xa4 /home/neuberfran/neuber/gcc-arm-none-eabi-10.3-2021.10/bin/../lib/gcc/arm-none-eabi/10.3.1/../../../../arm-none-eabi/lib/thumb/v7e-m+fp/hard/libc_nano.a(lib_a-wbuf.o)
                0x000000001fffeca0                __swbuf_r
 .text.__swsetup_r
                0x000000001fffed44       0xdc /home/neuberfran/neuber/gcc-arm-none-eabi-10.3-2021.10/bin/../lib/gcc/arm-none-eabi/10.3.1/../../../../arm-none-eabi/lib/thumb/v7e-m+fp/hard/libc_nano.a(lib_a-wsetup.o)
                0x000000001fffed44                __swsetup_r
 .text.abort    0x000000001fffee20        0xe /home/neuberfran/neuber/gcc-arm-none-eabi-10.3-2021.10/bin/../lib/gcc/arm-none-eabi/10.3.1/../../../../arm-none-eabi/lib/thumb/v7e-m+fp/hard/libc_nano.a(lib_a-abort.o)
                0x000000001fffee20                abort
 *fill*         0x000000001fffee2e        0x2 
 .text.__sflush_r
                0x000000001fffee30      0x10c /home/neuberfran/neuber/gcc-arm-none-eabi-10.3-2021.10/bin/../lib/gcc/arm-none-eabi/10.3.1/../../../../arm-none-eabi/lib/thumb/v7e-m+fp/hard/libc_nano.a(lib_a-fflush.o)
                0x000000001fffee30                __sflush_r
 .text._fflush_r
                0x000000001fffef3c       0x78 /home/neuberfran/neuber/gcc-arm-none-eabi-10.3-2021.10/bin/../lib/gcc/arm-none-eabi/10.3.1/../../../../arm-none-eabi/lib/thumb/v7e-m+fp/hard/libc_nano.a(lib_a-fflush.o)
                0x000000001fffef3c                _fflush_r
 .text.std      0x000000001fffefb4       0x48 /home/neuberfran/neuber/gcc-arm-none-eabi-10.3-2021.10/bin/../lib/gcc/arm-none-eabi/10.3.1/../../../../arm-none-eabi/lib/thumb/v7e-m+fp/hard/libc_nano.a(lib_a-findfp.o)
 .text._cleanup_r
                0x000000001fffeffc        0xc /home/neuberfran/neuber/gcc-arm-none-eabi-10.3-2021.10/bin/../lib/gcc/arm-none-eabi/10.3.1/../../../../arm-none-eabi/lib/thumb/v7e-m+fp/hard/libc_nano.a(lib_a-findfp.o)
                0x000000001fffeffc                _cleanup_r
 .text.__sfmoreglue
                0x000000001ffff008       0x2c /home/neuberfran/neuber/gcc-arm-none-eabi-10.3-2021.10/bin/../lib/gcc/arm-none-eabi/10.3.1/../../../../arm-none-eabi/lib/thumb/v7e-m+fp/hard/libc_nano.a(lib_a-findfp.o)
                0x000000001ffff008                __sfmoreglue
 .text.__sfp_lock_acquire
                0x000000001ffff034        0xc /home/neuberfran/neuber/gcc-arm-none-eabi-10.3-2021.10/bin/../lib/gcc/arm-none-eabi/10.3.1/../../../../arm-none-eabi/lib/thumb/v7e-m+fp/hard/libc_nano.a(lib_a-findfp.o)
                0x000000001ffff034                __sfp_lock_acquire
 .text.__sfp_lock_release
                0x000000001ffff040        0xc /home/neuberfran/neuber/gcc-arm-none-eabi-10.3-2021.10/bin/../lib/gcc/arm-none-eabi/10.3.1/../../../../arm-none-eabi/lib/thumb/v7e-m+fp/hard/libc_nano.a(lib_a-findfp.o)
                0x000000001ffff040                __sfp_lock_release
 .text.__sinit_lock_acquire
                0x000000001ffff04c        0xc /home/neuberfran/neuber/gcc-arm-none-eabi-10.3-2021.10/bin/../lib/gcc/arm-none-eabi/10.3.1/../../../../arm-none-eabi/lib/thumb/v7e-m+fp/hard/libc_nano.a(lib_a-findfp.o)
                0x000000001ffff04c                __sinit_lock_acquire
 .text.__sinit_lock_release
                0x000000001ffff058        0xc /home/neuberfran/neuber/gcc-arm-none-eabi-10.3-2021.10/bin/../lib/gcc/arm-none-eabi/10.3.1/../../../../arm-none-eabi/lib/thumb/v7e-m+fp/hard/libc_nano.a(lib_a-findfp.o)
                0x000000001ffff058                __sinit_lock_release
 .text.__sinit  0x000000001ffff064       0x70 /home/neuberfran/neuber/gcc-arm-none-eabi-10.3-2021.10/bin/../lib/gcc/arm-none-eabi/10.3.1/../../../../arm-none-eabi/lib/thumb/v7e-m+fp/hard/libc_nano.a(lib_a-findfp.o)
                0x000000001ffff064                __sinit
 .text.__sfp    0x000000001ffff0d4       0x8c /home/neuberfran/neuber/gcc-arm-none-eabi-10.3-2021.10/bin/../lib/gcc/arm-none-eabi/10.3.1/../../../../arm-none-eabi/lib/thumb/v7e-m+fp/hard/libc_nano.a(lib_a-findfp.o)
                0x000000001ffff0d4                __sfp
 .text._fwalk_reent
                0x000000001ffff160       0x3e /home/neuberfran/neuber/gcc-arm-none-eabi-10.3-2021.10/bin/../lib/gcc/arm-none-eabi/10.3.1/../../../../arm-none-eabi/lib/thumb/v7e-m+fp/hard/libc_nano.a(lib_a-fwalk.o)
                0x000000001ffff160                _fwalk_reent
 .text.__retarget_lock_init_recursive
                0x000000001ffff19e        0x2 /home/neuberfran/neuber/gcc-arm-none-eabi-10.3-2021.10/bin/../lib/gcc/arm-none-eabi/10.3.1/../../../../arm-none-eabi/lib/thumb/v7e-m+fp/hard/libc_nano.a(lib_a-lock.o)
                0x000000001ffff19e                __retarget_lock_init_recursive
 .text.__retarget_lock_acquire_recursive
                0x000000001ffff1a0        0x2 /home/neuberfran/neuber/gcc-arm-none-eabi-10.3-2021.10/bin/../lib/gcc/arm-none-eabi/10.3.1/../../../../arm-none-eabi/lib/thumb/v7e-m+fp/hard/libc_nano.a(lib_a-lock.o)
                0x000000001ffff1a0                __retarget_lock_acquire_recursive
 .text.__retarget_lock_release_recursive
                0x000000001ffff1a2        0x2 /home/neuberfran/neuber/gcc-arm-none-eabi-10.3-2021.10/bin/../lib/gcc/arm-none-eabi/10.3.1/../../../../arm-none-eabi/lib/thumb/v7e-m+fp/hard/libc_nano.a(lib_a-lock.o)
                0x000000001ffff1a2                __retarget_lock_release_recursive
 .text.__swhatbuf_r
                0x000000001ffff1a4       0x4a /home/neuberfran/neuber/gcc-arm-none-eabi-10.3-2021.10/bin/../lib/gcc/arm-none-eabi/10.3.1/../../../../arm-none-eabi/lib/thumb/v7e-m+fp/hard/libc_nano.a(lib_a-makebuf.o)
                0x000000001ffff1a4                __swhatbuf_r
 *fill*         0x000000001ffff1ee        0x2 
 .text.__smakebuf_r
                0x000000001ffff1f0       0x80 /home/neuberfran/neuber/gcc-arm-none-eabi-10.3-2021.10/bin/../lib/gcc/arm-none-eabi/10.3.1/../../../../arm-none-eabi/lib/thumb/v7e-m+fp/hard/libc_nano.a(lib_a-makebuf.o)
                0x000000001ffff1f0                __smakebuf_r
 .text._free_r  0x000000001ffff270       0x98 /home/neuberfran/neuber/gcc-arm-none-eabi-10.3-2021.10/bin/../lib/gcc/arm-none-eabi/10.3.1/../../../../arm-none-eabi/lib/thumb/v7e-m+fp/hard/libc_nano.a(lib_a-nano-freer.o)
                0x000000001ffff270                _free_r
 .text.sbrk_aligned
                0x000000001ffff308       0x40 /home/neuberfran/neuber/gcc-arm-none-eabi-10.3-2021.10/bin/../lib/gcc/arm-none-eabi/10.3.1/../../../../arm-none-eabi/lib/thumb/v7e-m+fp/hard/libc_nano.a(lib_a-nano-mallocr.o)
 .text._malloc_r
                0x000000001ffff348       0xe8 /home/neuberfran/neuber/gcc-arm-none-eabi-10.3-2021.10/bin/../lib/gcc/arm-none-eabi/10.3.1/../../../../arm-none-eabi/lib/thumb/v7e-m+fp/hard/libc_nano.a(lib_a-nano-mallocr.o)
                0x000000001ffff348                _malloc_r
 .text._sbrk_r  0x000000001ffff430       0x20 /home/neuberfran/neuber/gcc-arm-none-eabi-10.3-2021.10/bin/../lib/gcc/arm-none-eabi/10.3.1/../../../../arm-none-eabi/lib/thumb/v7e-m+fp/hard/libc_nano.a(lib_a-sbrkr.o)
                0x000000001ffff430                _sbrk_r
 .text._raise_r
                0x000000001ffff450       0x50 /home/neuberfran/neuber/gcc-arm-none-eabi-10.3-2021.10/bin/../lib/gcc/arm-none-eabi/10.3.1/../../../../arm-none-eabi/lib/thumb/v7e-m+fp/hard/libc_nano.a(lib_a-signal.o)
                0x000000001ffff450                _raise_r
 .text.raise    0x000000001ffff4a0       0x10 /home/neuberfran/neuber/gcc-arm-none-eabi-10.3-2021.10/bin/../lib/gcc/arm-none-eabi/10.3.1/../../../../arm-none-eabi/lib/thumb/v7e-m+fp/hard/libc_nano.a(lib_a-signal.o)
                0x000000001ffff4a0                raise
 .text._kill_r  0x000000001ffff4b0       0x24 /home/neuberfran/neuber/gcc-arm-none-eabi-10.3-2021.10/bin/../lib/gcc/arm-none-eabi/10.3.1/../../../../arm-none-eabi/lib/thumb/v7e-m+fp/hard/libc_nano.a(lib_a-signalr.o)
                0x000000001ffff4b0                _kill_r
 .text._getpid_r
                0x000000001ffff4d4        0x4 /home/neuberfran/neuber/gcc-arm-none-eabi-10.3-2021.10/bin/../lib/gcc/arm-none-eabi/10.3.1/../../../../arm-none-eabi/lib/thumb/v7e-m+fp/hard/libc_nano.a(lib_a-signalr.o)
                0x000000001ffff4d4                _getpid_r
 .text.__sread  0x000000001ffff4d8       0x22 /home/neuberfran/neuber/gcc-arm-none-eabi-10.3-2021.10/bin/../lib/gcc/arm-none-eabi/10.3.1/../../../../arm-none-eabi/lib/thumb/v7e-m+fp/hard/libc_nano.a(lib_a-stdio.o)
                0x000000001ffff4d8                __sread
 .text.__swrite
                0x000000001ffff4fa       0x38 /home/neuberfran/neuber/gcc-arm-none-eabi-10.3-2021.10/bin/../lib/gcc/arm-none-eabi/10.3.1/../../../../arm-none-eabi/lib/thumb/v7e-m+fp/hard/libc_nano.a(lib_a-stdio.o)
                0x000000001ffff4fa                __swrite
 .text.__sseek  0x000000001ffff532       0x24 /home/neuberfran/neuber/gcc-arm-none-eabi-10.3-2021.10/bin/../lib/gcc/arm-none-eabi/10.3.1/../../../../arm-none-eabi/lib/thumb/v7e-m+fp/hard/libc_nano.a(lib_a-stdio.o)
                0x000000001ffff532                __sseek
 .text.__sclose
                0x000000001ffff556        0x8 /home/neuberfran/neuber/gcc-arm-none-eabi-10.3-2021.10/bin/../lib/gcc/arm-none-eabi/10.3.1/../../../../arm-none-eabi/lib/thumb/v7e-m+fp/hard/libc_nano.a(lib_a-stdio.o)
                0x000000001ffff556                __sclose
 *fill*         0x000000001ffff55e        0x2 
 .text._write_r
                0x000000001ffff560       0x24 /home/neuberfran/neuber/gcc-arm-none-eabi-10.3-2021.10/bin/../lib/gcc/arm-none-eabi/10.3.1/../../../../arm-none-eabi/lib/thumb/v7e-m+fp/hard/libc_nano.a(lib_a-writer.o)
                0x000000001ffff560                _write_r
 .text._close_r
                0x000000001ffff584       0x20 /home/neuberfran/neuber/gcc-arm-none-eabi-10.3-2021.10/bin/../lib/gcc/arm-none-eabi/10.3.1/../../../../arm-none-eabi/lib/thumb/v7e-m+fp/hard/libc_nano.a(lib_a-closer.o)
                0x000000001ffff584                _close_r
 .text._fstat_r
                0x000000001ffff5a4       0x24 /home/neuberfran/neuber/gcc-arm-none-eabi-10.3-2021.10/bin/../lib/gcc/arm-none-eabi/10.3.1/../../../../arm-none-eabi/lib/thumb/v7e-m+fp/hard/libc_nano.a(lib_a-fstatr.o)
                0x000000001ffff5a4                _fstat_r
 .text._isatty_r
                0x000000001ffff5c8       0x20 /home/neuberfran/neuber/gcc-arm-none-eabi-10.3-2021.10/bin/../lib/gcc/arm-none-eabi/10.3.1/../../../../arm-none-eabi/lib/thumb/v7e-m+fp/hard/libc_nano.a(lib_a-isattyr.o)
                0x000000001ffff5c8                _isatty_r
 .text._lseek_r
                0x000000001ffff5e8       0x24 /home/neuberfran/neuber/gcc-arm-none-eabi-10.3-2021.10/bin/../lib/gcc/arm-none-eabi/10.3.1/../../../../arm-none-eabi/lib/thumb/v7e-m+fp/hard/libc_nano.a(lib_a-lseekr.o)
                0x000000001ffff5e8                _lseek_r
 .text.__malloc_lock
                0x000000001ffff60c        0xc /home/neuberfran/neuber/gcc-arm-none-eabi-10.3-2021.10/bin/../lib/gcc/arm-none-eabi/10.3.1/../../../../arm-none-eabi/lib/thumb/v7e-m+fp/hard/libc_nano.a(lib_a-mlock.o)
                0x000000001ffff60c                __malloc_lock
 .text.__malloc_unlock
                0x000000001ffff618        0xc /home/neuberfran/neuber/gcc-arm-none-eabi-10.3-2021.10/bin/../lib/gcc/arm-none-eabi/10.3.1/../../../../arm-none-eabi/lib/thumb/v7e-m+fp/hard/libc_nano.a(lib_a-mlock.o)
                0x000000001ffff618                __malloc_unlock
 .text._read_r  0x000000001ffff624       0x24 /home/neuberfran/neuber/gcc-arm-none-eabi-10.3-2021.10/bin/../lib/gcc/arm-none-eabi/10.3.1/../../../../arm-none-eabi/lib/thumb/v7e-m+fp/hard/libc_nano.a(lib_a-readr.o)
                0x000000001ffff624                _read_r
 .text._close   0x000000001ffff648       0x10 /home/neuberfran/neuber/gcc-arm-none-eabi-10.3-2021.10/bin/../lib/gcc/arm-none-eabi/10.3.1/../../../../arm-none-eabi/lib/thumb/v7e-m+fp/hard/libnosys.a(close.o)
                0x000000001ffff648                _close
 .text._fstat   0x000000001ffff658       0x10 /home/neuberfran/neuber/gcc-arm-none-eabi-10.3-2021.10/bin/../lib/gcc/arm-none-eabi/10.3.1/../../../../arm-none-eabi/lib/thumb/v7e-m+fp/hard/libnosys.a(fstat.o)
                0x000000001ffff658                _fstat
 .text._getpid  0x000000001ffff668       0x10 /home/neuberfran/neuber/gcc-arm-none-eabi-10.3-2021.10/bin/../lib/gcc/arm-none-eabi/10.3.1/../../../../arm-none-eabi/lib/thumb/v7e-m+fp/hard/libnosys.a(getpid.o)
                0x000000001ffff668                _getpid
 .text._isatty  0x000000001ffff678       0x10 /home/neuberfran/neuber/gcc-arm-none-eabi-10.3-2021.10/bin/../lib/gcc/arm-none-eabi/10.3.1/../../../../arm-none-eabi/lib/thumb/v7e-m+fp/hard/libnosys.a(isatty.o)
                0x000000001ffff678                _isatty
 .text._kill    0x000000001ffff688       0x10 /home/neuberfran/neuber/gcc-arm-none-eabi-10.3-2021.10/bin/../lib/gcc/arm-none-eabi/10.3.1/../../../../arm-none-eabi/lib/thumb/v7e-m+fp/hard/libnosys.a(kill.o)
                0x000000001ffff688                _kill
 .text._lseek   0x000000001ffff698       0x10 /home/neuberfran/neuber/gcc-arm-none-eabi-10.3-2021.10/bin/../lib/gcc/arm-none-eabi/10.3.1/../../../../arm-none-eabi/lib/thumb/v7e-m+fp/hard/libnosys.a(lseek.o)
                0x000000001ffff698                _lseek
 .text._sbrk    0x000000001ffff6a8       0x1c /home/neuberfran/neuber/gcc-arm-none-eabi-10.3-2021.10/bin/../lib/gcc/arm-none-eabi/10.3.1/../../../../arm-none-eabi/lib/thumb/v7e-m+fp/hard/libnosys.a(sbrk.o)
                0x000000001ffff6a8                _sbrk
 .text._exit    0x000000001ffff6c4        0x4 /home/neuberfran/neuber/gcc-arm-none-eabi-10.3-2021.10/bin/../lib/gcc/arm-none-eabi/10.3.1/../../../../arm-none-eabi/lib/thumb/v7e-m+fp/hard/libnosys.a(_exit.o)
                0x000000001ffff6c4                _exit
 *(.rodata)
 .rodata        0x000000001ffff6c8      0x199 CMakeFiles/rpmsg_str_echo_freertos_example.dir/home/neuberfran/projects/freertos-tn/examples/imx7d_pico_m4/demo_apps/rpmsg/str_echo_freertos/str_echo_freertos.c.obj
 *fill*         0x000000001ffff861        0x3 
 .rodata        0x000000001ffff864       0x9d CMakeFiles/rpmsg_str_echo_freertos_example.dir/home/neuberfran/projects/freertos-tn/middleware/multicore/open-amp/rpmsg/rpmsg_rtos.c.obj
 *fill*         0x000000001ffff901        0x3 
 .rodata        0x000000001ffff904      0x101 CMakeFiles/rpmsg_str_echo_freertos_example.dir/home/neuberfran/projects/freertos-tn/middleware/multicore/open-amp/porting/imx7d_m4/platform.c.obj
 *fill*         0x000000001ffffa05        0x3 
 .rodata        0x000000001ffffa08        0xe CMakeFiles/rpmsg_str_echo_freertos_example.dir/home/neuberfran/projects/freertos-tn/middleware/multicore/open-amp/rpmsg/rpmsg_core.c.obj
 *fill*         0x000000001ffffa16        0x2 
 .rodata        0x000000001ffffa18       0xc2 CMakeFiles/rpmsg_str_echo_freertos_example.dir/home/neuberfran/projects/freertos-tn/middleware/multicore/open-amp/porting/env/freertos/rpmsg_porting.c.obj
 *fill*         0x000000001ffffada        0x2 
 .rodata        0x000000001ffffadc        0x5 CMakeFiles/rpmsg_str_echo_freertos_example.dir/home/neuberfran/projects/freertos-tn/rtos/FreeRTOS/Source/tasks.c.obj
 *fill*         0x000000001ffffae1        0x3 
 .rodata        0x000000001ffffae4       0x68 CMakeFiles/rpmsg_str_echo_freertos_example.dir/home/neuberfran/projects/freertos-tn/platform/drivers/src/ccm_imx7d.c.obj
 .rodata        0x000000001ffffb4c       0xb3 CMakeFiles/rpmsg_str_echo_freertos_example.dir/home/neuberfran/projects/freertos-tn/examples/imx7d_pico_m4/board.c.obj
 *fill*         0x000000001ffffbff        0x1 
 .rodata        0x000000001ffffc00      0x14a CMakeFiles/rpmsg_str_echo_freertos_example.dir/home/neuberfran/projects/freertos-tn/platform/drivers/src/uart_imx.c.obj
 *fill*         0x000000001ffffd4a        0x2 
 .rodata        0x000000001ffffd4c       0x73 CMakeFiles/rpmsg_str_echo_freertos_example.dir/home/neuberfran/projects/freertos-tn/platform/drivers/src/mu_imx.c.obj
 *(.rodata*)
 *fill*         0x000000001ffffdbf        0x1 
 .rodata.__func__.0
                0x000000001ffffdc0        0xc CMakeFiles/rpmsg_str_echo_freertos_example.dir/home/neuberfran/projects/freertos-tn/examples/imx7d_pico_m4/demo_apps/rpmsg/str_echo_freertos/str_echo_freertos.c.obj
 .rodata.__func__.3
                0x000000001ffffdcc       0x1b CMakeFiles/rpmsg_str_echo_freertos_example.dir/home/neuberfran/projects/freertos-tn/middleware/multicore/open-amp/rpmsg/rpmsg_rtos.c.obj
 *fill*         0x000000001ffffde7        0x1 
 .rodata.__func__.2
                0x000000001ffffde8       0x1b CMakeFiles/rpmsg_str_echo_freertos_example.dir/home/neuberfran/projects/freertos-tn/middleware/multicore/open-amp/rpmsg/rpmsg_rtos.c.obj
 *fill*         0x000000001ffffe03        0x1 
 .rodata.__func__.1
                0x000000001ffffe04       0x13 CMakeFiles/rpmsg_str_echo_freertos_example.dir/home/neuberfran/projects/freertos-tn/middleware/multicore/open-amp/rpmsg/rpmsg_rtos.c.obj
 *fill*         0x000000001ffffe17        0x1 
 .rodata.__func__.5
                0x000000001ffffe18        0xa CMakeFiles/rpmsg_str_echo_freertos_example.dir/home/neuberfran/projects/freertos-tn/middleware/multicore/open-amp/porting/imx7d_m4/platform.c.obj
 *fill*         0x000000001ffffe22        0x2 
 .rodata.__func__.4
                0x000000001ffffe24        0xe CMakeFiles/rpmsg_str_echo_freertos_example.dir/home/neuberfran/projects/freertos-tn/middleware/multicore/open-amp/porting/imx7d_m4/platform.c.obj
 *fill*         0x000000001ffffe32        0x2 
 .rodata.__func__.3
                0x000000001ffffe34       0x1a CMakeFiles/rpmsg_str_echo_freertos_example.dir/home/neuberfran/projects/freertos-tn/middleware/multicore/open-amp/porting/imx7d_m4/platform.c.obj
 *fill*         0x000000001ffffe4e        0x2 
 .rodata.__func__.2
                0x000000001ffffe50       0x1b CMakeFiles/rpmsg_str_echo_freertos_example.dir/home/neuberfran/projects/freertos-tn/middleware/multicore/open-amp/porting/imx7d_m4/platform.c.obj
 *fill*         0x000000001ffffe6b        0x1 
 .rodata.__func__.1
                0x000000001ffffe6c       0x1e CMakeFiles/rpmsg_str_echo_freertos_example.dir/home/neuberfran/projects/freertos-tn/middleware/multicore/open-amp/porting/imx7d_m4/platform.c.obj
 *fill*         0x000000001ffffe8a        0x2 
 .rodata.__func__.0
                0x000000001ffffe8c       0x1f CMakeFiles/rpmsg_str_echo_freertos_example.dir/home/neuberfran/projects/freertos-tn/middleware/multicore/open-amp/porting/imx7d_m4/platform.c.obj
 *fill*         0x000000001ffffeab        0x1 
 .rodata.__func__.5
                0x000000001ffffeac        0x9 CMakeFiles/rpmsg_str_echo_freertos_example.dir/home/neuberfran/projects/freertos-tn/middleware/multicore/open-amp/porting/env/freertos/rpmsg_porting.c.obj
 *fill*         0x000000001ffffeb5        0x3 
 .rodata.__func__.4
                0x000000001ffffeb8        0xb CMakeFiles/rpmsg_str_echo_freertos_example.dir/home/neuberfran/projects/freertos-tn/middleware/multicore/open-amp/porting/env/freertos/rpmsg_porting.c.obj
 *fill*         0x000000001ffffec3        0x1 
 .rodata.__func__.3
                0x000000001ffffec4       0x11 CMakeFiles/rpmsg_str_echo_freertos_example.dir/home/neuberfran/projects/freertos-tn/middleware/multicore/open-amp/porting/env/freertos/rpmsg_porting.c.obj
 *fill*         0x000000001ffffed5        0x3 
 .rodata.__func__.1
                0x000000001ffffed8       0x15 CMakeFiles/rpmsg_str_echo_freertos_example.dir/home/neuberfran/projects/freertos-tn/middleware/multicore/open-amp/porting/env/freertos/rpmsg_porting.c.obj
 *fill*         0x000000001ffffeed        0x3 
 .rodata.__func__.0
                0x000000001ffffef0        0x8 CMakeFiles/rpmsg_str_echo_freertos_example.dir/home/neuberfran/projects/freertos-tn/middleware/multicore/open-amp/porting/env/freertos/rpmsg_porting.c.obj
 .rodata.__func__.1
                0x000000001ffffef8       0x13 CMakeFiles/rpmsg_str_echo_freertos_example.dir/home/neuberfran/projects/freertos-tn/platform/drivers/src/ccm_imx7d.c.obj
 *fill*         0x000000001fffff0b        0x1 
 .rodata.__func__.0
                0x000000001fffff0c        0xf CMakeFiles/rpmsg_str_echo_freertos_example.dir/home/neuberfran/projects/freertos-tn/platform/drivers/src/ccm_imx7d.c.obj
 *fill*         0x000000001fffff1b        0x1 
 .rodata.__func__.0
                0x000000001fffff1c       0x10 CMakeFiles/rpmsg_str_echo_freertos_example.dir/home/neuberfran/projects/freertos-tn/examples/imx7d_pico_m4/board.c.obj
 .rodata.__func__.4
                0x000000001fffff2c        0xa CMakeFiles/rpmsg_str_echo_freertos_example.dir/home/neuberfran/projects/freertos-tn/platform/drivers/src/uart_imx.c.obj
 *fill*         0x000000001fffff36        0x2 
 .rodata.__func__.2
                0x000000001fffff38        0xb CMakeFiles/rpmsg_str_echo_freertos_example.dir/home/neuberfran/projects/freertos-tn/platform/drivers/src/mu_imx.c.obj
 *fill*         0x000000001fffff43        0x1 
 .rodata.__func__.1
                0x000000001fffff44       0x11 CMakeFiles/rpmsg_str_echo_freertos_example.dir/home/neuberfran/projects/freertos-tn/platform/drivers/src/mu_imx.c.obj
 .rodata.__assert_func.str1.1
                0x000000001fffff55       0x3c /home/neuberfran/neuber/gcc-arm-none-eabi-10.3-2021.10/bin/../lib/gcc/arm-none-eabi/10.3.1/../../../../arm-none-eabi/lib/thumb/v7e-m+fp/hard/libc_nano.a(lib_a-assert.o)
                                         0x3d (size before relaxing)
 *fill*         0x000000001fffff91        0x3 
 .rodata._global_impure_ptr
                0x000000001fffff94        0x4 /home/neuberfran/neuber/gcc-arm-none-eabi-10.3-2021.10/bin/../lib/gcc/arm-none-eabi/10.3.1/../../../../arm-none-eabi/lib/thumb/v7e-m+fp/hard/libc_nano.a(lib_a-impure.o)
                0x000000001fffff94                _global_impure_ptr
 .rodata._vfprintf_r.str1.1
                0x000000001fffff98       0x11 /home/neuberfran/neuber/gcc-arm-none-eabi-10.3-2021.10/bin/../lib/gcc/arm-none-eabi/10.3.1/../../../../arm-none-eabi/lib/thumb/v7e-m+fp/hard/libc_nano.a(lib_a-nano-vfprintf.o)
 .rodata._printf_i.str1.1
                0x000000001fffffa9       0x22 /home/neuberfran/neuber/gcc-arm-none-eabi-10.3-2021.10/bin/../lib/gcc/arm-none-eabi/10.3.1/../../../../arm-none-eabi/lib/thumb/v7e-m+fp/hard/libc_nano.a(lib_a-nano-vfprintf_i.o)
 *fill*         0x000000001fffffcb        0x1 
 .rodata.__sf_fake_stderr
                0x000000001fffffcc       0x20 /home/neuberfran/neuber/gcc-arm-none-eabi-10.3-2021.10/bin/../lib/gcc/arm-none-eabi/10.3.1/../../../../arm-none-eabi/lib/thumb/v7e-m+fp/hard/libc_nano.a(lib_a-findfp.o)
                0x000000001fffffcc                __sf_fake_stderr
 .rodata.__sf_fake_stdin
                0x000000001fffffec       0x20 /home/neuberfran/neuber/gcc-arm-none-eabi-10.3-2021.10/bin/../lib/gcc/arm-none-eabi/10.3.1/../../../../arm-none-eabi/lib/thumb/v7e-m+fp/hard/libc_nano.a(lib_a-findfp.o)
                0x000000001fffffec                __sf_fake_stdin
 .rodata.__sf_fake_stdout
                0x000000002000000c       0x20 /home/neuberfran/neuber/gcc-arm-none-eabi-10.3-2021.10/bin/../lib/gcc/arm-none-eabi/10.3.1/../../../../arm-none-eabi/lib/thumb/v7e-m+fp/hard/libc_nano.a(lib_a-findfp.o)
                0x000000002000000c                __sf_fake_stdout
 *(.glue_7)
 .glue_7        0x000000002000002c        0x0 linker stubs
 *(.glue_7t)
 .glue_7t       0x000000002000002c        0x0 linker stubs
 *(.eh_frame)
 .eh_frame      0x000000002000002c        0x0 /home/neuberfran/neuber/gcc-arm-none-eabi-10.3-2021.10/bin/../lib/gcc/arm-none-eabi/10.3.1/thumb/v7e-m+fp/hard/crtbegin.o
 *(.init)
 .init          0x000000002000002c        0x4 /home/neuberfran/neuber/gcc-arm-none-eabi-10.3-2021.10/bin/../lib/gcc/arm-none-eabi/10.3.1/thumb/v7e-m+fp/hard/crti.o
                0x000000002000002c                _init
 .init          0x0000000020000030        0x8 /home/neuberfran/neuber/gcc-arm-none-eabi-10.3-2021.10/bin/../lib/gcc/arm-none-eabi/10.3.1/thumb/v7e-m+fp/hard/crtn.o
 *(.fini)
 .fini          0x0000000020000038        0x4 /home/neuberfran/neuber/gcc-arm-none-eabi-10.3-2021.10/bin/../lib/gcc/arm-none-eabi/10.3.1/thumb/v7e-m+fp/hard/crti.o
                0x0000000020000038                _fini
 .fini          0x000000002000003c        0x8 /home/neuberfran/neuber/gcc-arm-none-eabi-10.3-2021.10/bin/../lib/gcc/arm-none-eabi/10.3.1/thumb/v7e-m+fp/hard/crtn.o
                0x0000000020000044                . = ALIGN (0x4)

.vfp11_veneer   0x0000000020000044        0x0
 .vfp11_veneer  0x0000000020000044        0x0 linker stubs

.v4_bx          0x0000000020000044        0x0
 .v4_bx         0x0000000020000044        0x0 linker stubs

.iplt           0x0000000020000044        0x0
 .iplt          0x0000000020000044        0x0 /home/neuberfran/neuber/gcc-arm-none-eabi-10.3-2021.10/bin/../lib/gcc/arm-none-eabi/10.3.1/thumb/v7e-m+fp/hard/crtbegin.o

.ARM.extab
 *(.ARM.extab* .gnu.linkonce.armextab.*)

.ARM            0x0000000020000044        0x8
                0x0000000020000044                __exidx_start = .
 *(.ARM.exidx*)
 .ARM.exidx     0x0000000020000044        0x8 /home/neuberfran/neuber/gcc-arm-none-eabi-10.3-2021.10/bin/../lib/gcc/arm-none-eabi/10.3.1/../../../../arm-none-eabi/lib/thumb/v7e-m+fp/hard/crt0.o
                                         0x10 (size before relaxing)
                0x000000002000004c                __exidx_end = .

.rel.dyn        0x000000002000004c        0x0
 .rel.iplt      0x000000002000004c        0x0 /home/neuberfran/neuber/gcc-arm-none-eabi-10.3-2021.10/bin/../lib/gcc/arm-none-eabi/10.3.1/thumb/v7e-m+fp/hard/crtbegin.o

.ctors          0x000000002000004c        0x0
                0x000000002000004c                __CTOR_LIST__ = .
 *crtbegin.o(.ctors)
 *crtbegin?.o(.ctors)
 *(EXCLUDE_FILE(*crtend.o *crtend?.o) .ctors)
 *(SORT_BY_NAME(.ctors.*))
 *(.ctors)
                0x000000002000004c                __CTOR_END__ = .

.dtors          0x000000002000004c        0x0
                0x000000002000004c                __DTOR_LIST__ = .
 *crtbegin.o(.dtors)
 *crtbegin?.o(.dtors)
 *(EXCLUDE_FILE(*crtend.o *crtend?.o) .dtors)
 *(SORT_BY_NAME(.dtors.*))
 *(.dtors)
                0x000000002000004c                __DTOR_END__ = .

.preinit_array  0x000000002000004c        0x0
                0x000000002000004c                PROVIDE (__preinit_array_start = .)
 *(.preinit_array*)
                0x000000002000004c                PROVIDE (__preinit_array_end = .)

.init_array     0x000000002000004c        0x4
                0x000000002000004c                PROVIDE (__init_array_start = .)
 *(SORT_BY_NAME(.init_array.*))
 *(.init_array*)
 .init_array    0x000000002000004c        0x4 /home/neuberfran/neuber/gcc-arm-none-eabi-10.3-2021.10/bin/../lib/gcc/arm-none-eabi/10.3.1/thumb/v7e-m+fp/hard/crtbegin.o
                0x0000000020000050                PROVIDE (__init_array_end = .)

.fini_array     0x0000000020000050        0x4
                [!provide]                        PROVIDE (__fini_array_start = .)
 *(SORT_BY_NAME(.fini_array.*))
 *(.fini_array*)
 .fini_array    0x0000000020000050        0x4 /home/neuberfran/neuber/gcc-arm-none-eabi-10.3-2021.10/bin/../lib/gcc/arm-none-eabi/10.3.1/thumb/v7e-m+fp/hard/crtbegin.o
                [!provide]                        PROVIDE (__fini_array_end = .)
                0x0000000020000054                __etext = .
                0x0000000020000054                __DATA_ROM = .

.data           0x0000000020000000      0x1d0 load address 0x0000000020000054
                0x0000000020000000                . = ALIGN (0x4)
                0x0000000020000000                __DATA_RAM = .
                0x0000000020000000                __data_start__ = .
 *(.data)
 *(.data*)
 .data.uxCriticalNesting
                0x0000000020000000        0x4 CMakeFiles/rpmsg_str_echo_freertos_example.dir/home/neuberfran/projects/freertos-tn/rtos/FreeRTOS/Source/portable/GCC/ARM_CM4F/port.c.obj
 .data.xFreeBytesRemaining
                0x0000000020000004        0x4 CMakeFiles/rpmsg_str_echo_freertos_example.dir/home/neuberfran/projects/freertos-tn/rtos/FreeRTOS/Source/portable/MemMang/heap_2.c.obj
 .data.proc_ops
                0x0000000020000008       0x1c CMakeFiles/rpmsg_str_echo_freertos_example.dir/home/neuberfran/projects/freertos-tn/middleware/multicore/open-amp/porting/imx7d_m4/platform.c.obj
                0x0000000020000008                proc_ops
 .data.proc_table
                0x0000000020000024      0x120 CMakeFiles/rpmsg_str_echo_freertos_example.dir/home/neuberfran/projects/freertos-tn/middleware/multicore/open-amp/porting/imx7d_m4/platform_info.c.obj
                0x0000000020000024                proc_table
 .data.rpmsg_rdev_config_ops
                0x0000000020000144       0x24 CMakeFiles/rpmsg_str_echo_freertos_example.dir/home/neuberfran/projects/freertos-tn/middleware/multicore/open-amp/rpmsg/remote_device.c.obj
                0x0000000020000144                rpmsg_rdev_config_ops
 .data.xNextTaskUnblockTime
                0x0000000020000168        0x4 CMakeFiles/rpmsg_str_echo_freertos_example.dir/home/neuberfran/projects/freertos-tn/rtos/FreeRTOS/Source/tasks.c.obj
 .data._impure_ptr
                0x000000002000016c        0x4 /home/neuberfran/neuber/gcc-arm-none-eabi-10.3-2021.10/bin/../lib/gcc/arm-none-eabi/10.3.1/../../../../arm-none-eabi/lib/thumb/v7e-m+fp/hard/libc_nano.a(lib_a-impure.o)
                0x000000002000016c                _impure_ptr
 .data.impure_data
                0x0000000020000170       0x60 /home/neuberfran/neuber/gcc-arm-none-eabi-10.3-2021.10/bin/../lib/gcc/arm-none-eabi/10.3.1/../../../../arm-none-eabi/lib/thumb/v7e-m+fp/hard/libc_nano.a(lib_a-impure.o)
 *(.jcr*)
                0x00000000200001d0                . = ALIGN (0x4)
                0x00000000200001d0                __data_end__ = .
                0x0000000020000224                __DATA_END = (__DATA_ROM + (__data_end__ - __data_start__))
                0x0000000020000000                text_end = (ORIGIN (m_text) + LENGTH (m_text))
                0x0000000000000000                ASSERT ((__DATA_END <= text_end), region m_text overflowed with text and data)

.igot.plt       0x00000000200001d0        0x0 load address 0x0000000020000224
 .igot.plt      0x00000000200001d0        0x0 /home/neuberfran/neuber/gcc-arm-none-eabi-10.3-2021.10/bin/../lib/gcc/arm-none-eabi/10.3.1/thumb/v7e-m+fp/hard/crtbegin.o

.bss            0x00000000200001d0     0x53f4 load address 0x0000000020000224
                0x00000000200001d0                . = ALIGN (0x4)
                0x00000000200001d0                __START_BSS = .
                0x00000000200001d0                __bss_start__ = .
 *(.bss)
 .bss           0x00000000200001d0       0x1c /home/neuberfran/neuber/gcc-arm-none-eabi-10.3-2021.10/bin/../lib/gcc/arm-none-eabi/10.3.1/thumb/v7e-m+fp/hard/crtbegin.o
 *(.bss*)
 .bss.ucMaxSysCallPriority
                0x00000000200001ec        0x1 CMakeFiles/rpmsg_str_echo_freertos_example.dir/home/neuberfran/projects/freertos-tn/rtos/FreeRTOS/Source/portable/GCC/ARM_CM4F/port.c.obj
 *fill*         0x00000000200001ed        0x3 
 .bss.ulMaxPRIGROUPValue
                0x00000000200001f0        0x4 CMakeFiles/rpmsg_str_echo_freertos_example.dir/home/neuberfran/projects/freertos-tn/rtos/FreeRTOS/Source/portable/GCC/ARM_CM4F/port.c.obj
 .bss.ucHeap    0x00000000200001f4     0x5000 CMakeFiles/rpmsg_str_echo_freertos_example.dir/home/neuberfran/projects/freertos-tn/rtos/FreeRTOS/Source/portable/MemMang/heap_2.c.obj
 .bss.xStart    0x00000000200051f4        0x8 CMakeFiles/rpmsg_str_echo_freertos_example.dir/home/neuberfran/projects/freertos-tn/rtos/FreeRTOS/Source/portable/MemMang/heap_2.c.obj
 .bss.xEnd      0x00000000200051fc        0x8 CMakeFiles/rpmsg_str_echo_freertos_example.dir/home/neuberfran/projects/freertos-tn/rtos/FreeRTOS/Source/portable/MemMang/heap_2.c.obj
 .bss.xHeapHasBeenInitialised.0
                0x0000000020005204        0x4 CMakeFiles/rpmsg_str_echo_freertos_example.dir/home/neuberfran/projects/freertos-tn/rtos/FreeRTOS/Source/portable/MemMang/heap_2.c.obj
 .bss.app_buf   0x0000000020005208      0x200 CMakeFiles/rpmsg_str_echo_freertos_example.dir/home/neuberfran/projects/freertos-tn/examples/imx7d_pico_m4/demo_apps/rpmsg/str_echo_freertos/str_echo_freertos.c.obj
 .bss.default_chnl
                0x0000000020005408        0x4 CMakeFiles/rpmsg_str_echo_freertos_example.dir/home/neuberfran/projects/freertos-tn/middleware/multicore/open-amp/rpmsg/rpmsg_rtos.c.obj
 .bss.default_q
                0x000000002000540c        0x4 CMakeFiles/rpmsg_str_echo_freertos_example.dir/home/neuberfran/projects/freertos-tn/middleware/multicore/open-amp/rpmsg/rpmsg_rtos.c.obj
 .bss.callback_sync
                0x0000000020005410        0x4 CMakeFiles/rpmsg_str_echo_freertos_example.dir/home/neuberfran/projects/freertos-tn/middleware/multicore/open-amp/rpmsg/rpmsg_rtos.c.obj
 .bss.rpmsg_queue_size
                0x0000000020005414        0x4 CMakeFiles/rpmsg_str_echo_freertos_example.dir/home/neuberfran/projects/freertos-tn/middleware/multicore/open-amp/rpmsg/rpmsg_rtos.c.obj
 .bss.disable_counters
                0x0000000020005418        0x8 CMakeFiles/rpmsg_str_echo_freertos_example.dir/home/neuberfran/projects/freertos-tn/middleware/multicore/open-amp/porting/imx7d_m4/platform.c.obj
 .bss.disable_counter_all
                0x0000000020005420        0x4 CMakeFiles/rpmsg_str_echo_freertos_example.dir/home/neuberfran/projects/freertos-tn/middleware/multicore/open-amp/porting/imx7d_m4/platform.c.obj
 .bss.procs     0x0000000020005424        0x4 CMakeFiles/rpmsg_str_echo_freertos_example.dir/home/neuberfran/projects/freertos-tn/middleware/multicore/open-amp/common/hil/hil.c.obj
                0x0000000020005424                procs
 .bss.env_init_counter
                0x0000000020005428        0x4 CMakeFiles/rpmsg_str_echo_freertos_example.dir/home/neuberfran/projects/freertos-tn/middleware/multicore/open-amp/porting/env/freertos/rpmsg_porting.c.obj
 .bss.isr_table
                0x000000002000542c       0x50 CMakeFiles/rpmsg_str_echo_freertos_example.dir/home/neuberfran/projects/freertos-tn/middleware/multicore/open-amp/porting/env/freertos/rpmsg_porting.c.obj
 .bss.xQueueRegistry
                0x000000002000547c       0x40 CMakeFiles/rpmsg_str_echo_freertos_example.dir/home/neuberfran/projects/freertos-tn/rtos/FreeRTOS/Source/queue.c.obj
                0x000000002000547c                xQueueRegistry
 .bss.pxCurrentTCB
                0x00000000200054bc        0x4 CMakeFiles/rpmsg_str_echo_freertos_example.dir/home/neuberfran/projects/freertos-tn/rtos/FreeRTOS/Source/tasks.c.obj
                0x00000000200054bc                pxCurrentTCB
 .bss.pxReadyTasksLists
                0x00000000200054c0       0x64 CMakeFiles/rpmsg_str_echo_freertos_example.dir/home/neuberfran/projects/freertos-tn/rtos/FreeRTOS/Source/tasks.c.obj
 .bss.xDelayedTaskList1
                0x0000000020005524       0x14 CMakeFiles/rpmsg_str_echo_freertos_example.dir/home/neuberfran/projects/freertos-tn/rtos/FreeRTOS/Source/tasks.c.obj
 .bss.xDelayedTaskList2
                0x0000000020005538       0x14 CMakeFiles/rpmsg_str_echo_freertos_example.dir/home/neuberfran/projects/freertos-tn/rtos/FreeRTOS/Source/tasks.c.obj
 .bss.pxDelayedTaskList
                0x000000002000554c        0x4 CMakeFiles/rpmsg_str_echo_freertos_example.dir/home/neuberfran/projects/freertos-tn/rtos/FreeRTOS/Source/tasks.c.obj
 .bss.pxOverflowDelayedTaskList
                0x0000000020005550        0x4 CMakeFiles/rpmsg_str_echo_freertos_example.dir/home/neuberfran/projects/freertos-tn/rtos/FreeRTOS/Source/tasks.c.obj
 .bss.xPendingReadyList
                0x0000000020005554       0x14 CMakeFiles/rpmsg_str_echo_freertos_example.dir/home/neuberfran/projects/freertos-tn/rtos/FreeRTOS/Source/tasks.c.obj
 .bss.xSuspendedTaskList
                0x0000000020005568       0x14 CMakeFiles/rpmsg_str_echo_freertos_example.dir/home/neuberfran/projects/freertos-tn/rtos/FreeRTOS/Source/tasks.c.obj
 .bss.uxCurrentNumberOfTasks
                0x000000002000557c        0x4 CMakeFiles/rpmsg_str_echo_freertos_example.dir/home/neuberfran/projects/freertos-tn/rtos/FreeRTOS/Source/tasks.c.obj
 .bss.xTickCount
                0x0000000020005580        0x4 CMakeFiles/rpmsg_str_echo_freertos_example.dir/home/neuberfran/projects/freertos-tn/rtos/FreeRTOS/Source/tasks.c.obj
 .bss.uxTopReadyPriority
                0x0000000020005584        0x4 CMakeFiles/rpmsg_str_echo_freertos_example.dir/home/neuberfran/projects/freertos-tn/rtos/FreeRTOS/Source/tasks.c.obj
 .bss.xSchedulerRunning
                0x0000000020005588        0x4 CMakeFiles/rpmsg_str_echo_freertos_example.dir/home/neuberfran/projects/freertos-tn/rtos/FreeRTOS/Source/tasks.c.obj
 .bss.uxPendedTicks
                0x000000002000558c        0x4 CMakeFiles/rpmsg_str_echo_freertos_example.dir/home/neuberfran/projects/freertos-tn/rtos/FreeRTOS/Source/tasks.c.obj
 .bss.xYieldPending
                0x0000000020005590        0x4 CMakeFiles/rpmsg_str_echo_freertos_example.dir/home/neuberfran/projects/freertos-tn/rtos/FreeRTOS/Source/tasks.c.obj
 .bss.xNumOfOverflows
                0x0000000020005594        0x4 CMakeFiles/rpmsg_str_echo_freertos_example.dir/home/neuberfran/projects/freertos-tn/rtos/FreeRTOS/Source/tasks.c.obj
 .bss.uxTaskNumber
                0x0000000020005598        0x4 CMakeFiles/rpmsg_str_echo_freertos_example.dir/home/neuberfran/projects/freertos-tn/rtos/FreeRTOS/Source/tasks.c.obj
 .bss.uxSchedulerSuspended
                0x000000002000559c        0x4 CMakeFiles/rpmsg_str_echo_freertos_example.dir/home/neuberfran/projects/freertos-tn/rtos/FreeRTOS/Source/tasks.c.obj
 .bss.s_debugConsole
                0x00000000200055a0       0x10 CMakeFiles/rpmsg_str_echo_freertos_example.dir/home/neuberfran/projects/freertos-tn/platform/utilities/src/debug_console_imx.c.obj
 .bss.__lock___malloc_recursive_mutex
                0x00000000200055b0        0x1 /home/neuberfran/neuber/gcc-arm-none-eabi-10.3-2021.10/bin/../lib/gcc/arm-none-eabi/10.3.1/../../../../arm-none-eabi/lib/thumb/v7e-m+fp/hard/libc_nano.a(lib_a-lock.o)
                0x00000000200055b0                __lock___malloc_recursive_mutex
 .bss.__lock___sfp_recursive_mutex
                0x00000000200055b1        0x1 /home/neuberfran/neuber/gcc-arm-none-eabi-10.3-2021.10/bin/../lib/gcc/arm-none-eabi/10.3.1/../../../../arm-none-eabi/lib/thumb/v7e-m+fp/hard/libc_nano.a(lib_a-lock.o)
                0x00000000200055b1                __lock___sfp_recursive_mutex
 .bss.__lock___sinit_recursive_mutex
                0x00000000200055b2        0x1 /home/neuberfran/neuber/gcc-arm-none-eabi-10.3-2021.10/bin/../lib/gcc/arm-none-eabi/10.3.1/../../../../arm-none-eabi/lib/thumb/v7e-m+fp/hard/libc_nano.a(lib_a-lock.o)
                0x00000000200055b2                __lock___sinit_recursive_mutex
 *fill*         0x00000000200055b3        0x1 
 .bss.__malloc_free_list
                0x00000000200055b4        0x4 /home/neuberfran/neuber/gcc-arm-none-eabi-10.3-2021.10/bin/../lib/gcc/arm-none-eabi/10.3.1/../../../../arm-none-eabi/lib/thumb/v7e-m+fp/hard/libc_nano.a(lib_a-nano-mallocr.o)
                0x00000000200055b4                __malloc_free_list
 .bss.__malloc_sbrk_start
                0x00000000200055b8        0x4 /home/neuberfran/neuber/gcc-arm-none-eabi-10.3-2021.10/bin/../lib/gcc/arm-none-eabi/10.3.1/../../../../arm-none-eabi/lib/thumb/v7e-m+fp/hard/libc_nano.a(lib_a-nano-mallocr.o)
                0x00000000200055b8                __malloc_sbrk_start
 .bss.errno     0x00000000200055bc        0x4 /home/neuberfran/neuber/gcc-arm-none-eabi-10.3-2021.10/bin/../lib/gcc/arm-none-eabi/10.3.1/../../../../arm-none-eabi/lib/thumb/v7e-m+fp/hard/libc_nano.a(lib_a-reent.o)
                0x00000000200055bc                errno
 .bss.heap_end.0
                0x00000000200055c0        0x4 /home/neuberfran/neuber/gcc-arm-none-eabi-10.3-2021.10/bin/../lib/gcc/arm-none-eabi/10.3.1/../../../../arm-none-eabi/lib/thumb/v7e-m+fp/hard/libnosys.a(sbrk.o)
 *(COMMON)
                0x00000000200055c4                . = ALIGN (0x4)
                0x00000000200055c4                __bss_end__ = .
                0x00000000200055c4                __END_BSS = .

.heap           0x00000000200055c4      0x404 load address 0x0000000020005618
                0x00000000200055c8                . = ALIGN (0x8)
 *fill*         0x00000000200055c4        0x4 
                0x00000000200055c8                __end__ = .
                0x00000000200055c8                PROVIDE (end = .)
                0x00000000200055c8                __HeapBase = .
                0x00000000200059c8                . = (. + HEAP_SIZE)
 *fill*         0x00000000200055c8      0x400 
                0x00000000200059c8                __HeapLimit = .

.stack          0x00000000200059c8      0x400 load address 0x0000000020005a1c
                0x00000000200059c8                . = ALIGN (0x8)
                0x0000000020005dc8                . = (. + STACK_SIZE)
 *fill*         0x00000000200059c8      0x400 
                0x0000000020008000                __StackTop = (ORIGIN (m_data) + LENGTH (m_data))
                0x0000000020007c00                __StackLimit = (__StackTop - STACK_SIZE)
                0x0000000020008000                PROVIDE (__stack = __StackTop)

.ARM.attributes
                0x0000000000000000       0x30
 *(.ARM.attributes)
 .ARM.attributes
                0x0000000000000000       0x1e /home/neuberfran/neuber/gcc-arm-none-eabi-10.3-2021.10/bin/../lib/gcc/arm-none-eabi/10.3.1/thumb/v7e-m+fp/hard/crti.o
 .ARM.attributes
                0x000000000000001e       0x34 /home/neuberfran/neuber/gcc-arm-none-eabi-10.3-2021.10/bin/../lib/gcc/arm-none-eabi/10.3.1/thumb/v7e-m+fp/hard/crtbegin.o
 .ARM.attributes
                0x0000000000000052       0x1c /home/neuberfran/neuber/gcc-arm-none-eabi-10.3-2021.10/bin/../lib/gcc/arm-none-eabi/10.3.1/../../../../arm-none-eabi/lib/thumb/v7e-m+fp/hard/crt0.o
 .ARM.attributes
                0x000000000000006e       0x34 CMakeFiles/rpmsg_str_echo_freertos_example.dir/home/neuberfran/projects/freertos-tn/rtos/FreeRTOS/Source/portable/GCC/ARM_CM4F/port.c.obj
 .ARM.attributes
                0x00000000000000a2       0x1f CMakeFiles/rpmsg_str_echo_freertos_example.dir/home/neuberfran/projects/freertos-tn/platform/devices/MCIMX7D/startup/gcc/startup_MCIMX7D_M4.S.obj
 .ARM.attributes
                0x00000000000000c1       0x34 CMakeFiles/rpmsg_str_echo_freertos_example.dir/home/neuberfran/projects/freertos-tn/rtos/FreeRTOS/Source/portable/MemMang/heap_2.c.obj
 .ARM.attributes
                0x00000000000000f5       0x34 CMakeFiles/rpmsg_str_echo_freertos_example.dir/home/neuberfran/projects/freertos-tn/examples/imx7d_pico_m4/demo_apps/rpmsg/str_echo_freertos/str_echo_freertos.c.obj
 .ARM.attributes
                0x0000000000000129       0x34 CMakeFiles/rpmsg_str_echo_freertos_example.dir/home/neuberfran/projects/freertos-tn/middleware/multicore/open-amp/rpmsg/rpmsg_rtos.c.obj
 .ARM.attributes
                0x000000000000015d       0x34 CMakeFiles/rpmsg_str_echo_freertos_example.dir/home/neuberfran/projects/freertos-tn/middleware/multicore/open-amp/porting/imx7d_m4/platform.c.obj
 .ARM.attributes
                0x0000000000000191       0x34 CMakeFiles/rpmsg_str_echo_freertos_example.dir/home/neuberfran/projects/freertos-tn/middleware/multicore/open-amp/porting/imx7d_m4/platform_info.c.obj
 .ARM.attributes
                0x00000000000001c5       0x34 CMakeFiles/rpmsg_str_echo_freertos_example.dir/home/neuberfran/projects/freertos-tn/middleware/multicore/open-amp/common/hil/hil.c.obj
 .ARM.attributes
                0x00000000000001f9       0x34 CMakeFiles/rpmsg_str_echo_freertos_example.dir/home/neuberfran/projects/freertos-tn/middleware/multicore/open-amp/common/llist/llist.c.obj
 .ARM.attributes
                0x000000000000022d       0x34 CMakeFiles/rpmsg_str_echo_freertos_example.dir/home/neuberfran/projects/freertos-tn/middleware/multicore/open-amp/common/shm/sh_mem.c.obj
 .ARM.attributes
                0x0000000000000261       0x34 CMakeFiles/rpmsg_str_echo_freertos_example.dir/home/neuberfran/projects/freertos-tn/middleware/multicore/open-amp/rpmsg/remote_device.c.obj
 .ARM.attributes
                0x0000000000000295       0x34 CMakeFiles/rpmsg_str_echo_freertos_example.dir/home/neuberfran/projects/freertos-tn/middleware/multicore/open-amp/rpmsg/rpmsg.c.obj
 .ARM.attributes
                0x00000000000002c9       0x34 CMakeFiles/rpmsg_str_echo_freertos_example.dir/home/neuberfran/projects/freertos-tn/middleware/multicore/open-amp/rpmsg/rpmsg_ext.c.obj
 .ARM.attributes
                0x00000000000002fd       0x34 CMakeFiles/rpmsg_str_echo_freertos_example.dir/home/neuberfran/projects/freertos-tn/middleware/multicore/open-amp/rpmsg/rpmsg_core.c.obj
 .ARM.attributes
                0x0000000000000331       0x34 CMakeFiles/rpmsg_str_echo_freertos_example.dir/home/neuberfran/projects/freertos-tn/middleware/multicore/open-amp/virtio/virtqueue.c.obj
 .ARM.attributes
                0x0000000000000365       0x34 CMakeFiles/rpmsg_str_echo_freertos_example.dir/home/neuberfran/projects/freertos-tn/middleware/multicore/open-amp/porting/env/freertos/rpmsg_porting.c.obj
 .ARM.attributes
                0x0000000000000399       0x34 CMakeFiles/rpmsg_str_echo_freertos_example.dir/home/neuberfran/projects/freertos-tn/rtos/FreeRTOS/Source/list.c.obj
 .ARM.attributes
                0x00000000000003cd       0x34 CMakeFiles/rpmsg_str_echo_freertos_example.dir/home/neuberfran/projects/freertos-tn/rtos/FreeRTOS/Source/queue.c.obj
 .ARM.attributes
                0x0000000000000401       0x34 CMakeFiles/rpmsg_str_echo_freertos_example.dir/home/neuberfran/projects/freertos-tn/rtos/FreeRTOS/Source/tasks.c.obj
 .ARM.attributes
                0x0000000000000435       0x34 CMakeFiles/rpmsg_str_echo_freertos_example.dir/home/neuberfran/projects/freertos-tn/platform/drivers/src/ccm_analog_imx7d.c.obj
 .ARM.attributes
                0x0000000000000469       0x34 CMakeFiles/rpmsg_str_echo_freertos_example.dir/home/neuberfran/projects/freertos-tn/platform/drivers/src/ccm_imx7d.c.obj
 .ARM.attributes
                0x000000000000049d       0x34 CMakeFiles/rpmsg_str_echo_freertos_example.dir/home/neuberfran/projects/freertos-tn/platform/utilities/src/debug_console_imx.c.obj
 .ARM.attributes
                0x00000000000004d1       0x34 CMakeFiles/rpmsg_str_echo_freertos_example.dir/home/neuberfran/projects/freertos-tn/platform/utilities/src/print_scan.c.obj
 .ARM.attributes
                0x0000000000000505       0x34 CMakeFiles/rpmsg_str_echo_freertos_example.dir/home/neuberfran/projects/freertos-tn/platform/devices/MCIMX7D/startup/system_MCIMX7D_M4.c.obj
 .ARM.attributes
                0x0000000000000539       0x34 CMakeFiles/rpmsg_str_echo_freertos_example.dir/home/neuberfran/projects/freertos-tn/examples/imx7d_pico_m4/pin_mux.c.obj
 .ARM.attributes
                0x000000000000056d       0x34 CMakeFiles/rpmsg_str_echo_freertos_example.dir/home/neuberfran/projects/freertos-tn/examples/imx7d_pico_m4/board.c.obj
 .ARM.attributes
                0x00000000000005a1       0x34 CMakeFiles/rpmsg_str_echo_freertos_example.dir/home/neuberfran/projects/freertos-tn/examples/imx7d_pico_m4/clock_freq.c.obj
 .ARM.attributes
                0x00000000000005d5       0x34 CMakeFiles/rpmsg_str_echo_freertos_example.dir/home/neuberfran/projects/freertos-tn/examples/imx7d_pico_m4/demo_apps/rpmsg/str_echo_freertos/hardware_init.c.obj
 .ARM.attributes
                0x0000000000000609       0x34 CMakeFiles/rpmsg_str_echo_freertos_example.dir/home/neuberfran/projects/freertos-tn/platform/drivers/src/uart_imx.c.obj
 .ARM.attributes
                0x000000000000063d       0x34 CMakeFiles/rpmsg_str_echo_freertos_example.dir/home/neuberfran/projects/freertos-tn/platform/drivers/src/mu_imx.c.obj
 .ARM.attributes
                0x0000000000000671       0x34 /home/neuberfran/neuber/gcc-arm-none-eabi-10.3-2021.10/bin/../lib/gcc/arm-none-eabi/10.3.1/../../../../arm-none-eabi/lib/thumb/v7e-m+fp/hard/libc_nano.a(lib_a-assert.o)
 .ARM.attributes
                0x00000000000006a5       0x34 /home/neuberfran/neuber/gcc-arm-none-eabi-10.3-2021.10/bin/../lib/gcc/arm-none-eabi/10.3.1/../../../../arm-none-eabi/lib/thumb/v7e-m+fp/hard/libc_nano.a(lib_a-exit.o)
 .ARM.attributes
                0x00000000000006d9       0x34 /home/neuberfran/neuber/gcc-arm-none-eabi-10.3-2021.10/bin/../lib/gcc/arm-none-eabi/10.3.1/../../../../arm-none-eabi/lib/thumb/v7e-m+fp/hard/libc_nano.a(lib_a-fprintf.o)
 .ARM.attributes
                0x000000000000070d       0x34 /home/neuberfran/neuber/gcc-arm-none-eabi-10.3-2021.10/bin/../lib/gcc/arm-none-eabi/10.3.1/../../../../arm-none-eabi/lib/thumb/v7e-m+fp/hard/libc_nano.a(lib_a-impure.o)
 .ARM.attributes
                0x0000000000000741       0x34 /home/neuberfran/neuber/gcc-arm-none-eabi-10.3-2021.10/bin/../lib/gcc/arm-none-eabi/10.3.1/../../../../arm-none-eabi/lib/thumb/v7e-m+fp/hard/libc_nano.a(lib_a-init.o)
 .ARM.attributes
                0x0000000000000775       0x34 /home/neuberfran/neuber/gcc-arm-none-eabi-10.3-2021.10/bin/../lib/gcc/arm-none-eabi/10.3.1/../../../../arm-none-eabi/lib/thumb/v7e-m+fp/hard/libc_nano.a(lib_a-memcpy-stub.o)
 .ARM.attributes
                0x00000000000007a9       0x34 /home/neuberfran/neuber/gcc-arm-none-eabi-10.3-2021.10/bin/../lib/gcc/arm-none-eabi/10.3.1/../../../../arm-none-eabi/lib/thumb/v7e-m+fp/hard/libc_nano.a(lib_a-memset.o)
 .ARM.attributes
                0x00000000000007dd       0x34 /home/neuberfran/neuber/gcc-arm-none-eabi-10.3-2021.10/bin/../lib/gcc/arm-none-eabi/10.3.1/../../../../arm-none-eabi/lib/thumb/v7e-m+fp/hard/libc_nano.a(lib_a-nano-vfprintf.o)
 .ARM.attributes
                0x0000000000000811       0x34 /home/neuberfran/neuber/gcc-arm-none-eabi-10.3-2021.10/bin/../lib/gcc/arm-none-eabi/10.3.1/../../../../arm-none-eabi/lib/thumb/v7e-m+fp/hard/libc_nano.a(lib_a-nano-vfprintf_i.o)
 .ARM.attributes
                0x0000000000000845       0x17 /home/neuberfran/neuber/gcc-arm-none-eabi-10.3-2021.10/bin/../lib/gcc/arm-none-eabi/10.3.1/../../../../arm-none-eabi/lib/thumb/v7e-m+fp/hard/libc_nano.a(lib_a-strlen.o)
 .ARM.attributes
                0x000000000000085c       0x34 /home/neuberfran/neuber/gcc-arm-none-eabi-10.3-2021.10/bin/../lib/gcc/arm-none-eabi/10.3.1/../../../../arm-none-eabi/lib/thumb/v7e-m+fp/hard/libc_nano.a(lib_a-strncmp.o)
 .ARM.attributes
                0x0000000000000890       0x34 /home/neuberfran/neuber/gcc-arm-none-eabi-10.3-2021.10/bin/../lib/gcc/arm-none-eabi/10.3.1/../../../../arm-none-eabi/lib/thumb/v7e-m+fp/hard/libc_nano.a(lib_a-strncpy.o)
 .ARM.attributes
                0x00000000000008c4       0x34 /home/neuberfran/neuber/gcc-arm-none-eabi-10.3-2021.10/bin/../lib/gcc/arm-none-eabi/10.3.1/../../../../arm-none-eabi/lib/thumb/v7e-m+fp/hard/libc_nano.a(lib_a-wbuf.o)
 .ARM.attributes
                0x00000000000008f8       0x34 /home/neuberfran/neuber/gcc-arm-none-eabi-10.3-2021.10/bin/../lib/gcc/arm-none-eabi/10.3.1/../../../../arm-none-eabi/lib/thumb/v7e-m+fp/hard/libc_nano.a(lib_a-wsetup.o)
 .ARM.attributes
                0x000000000000092c       0x34 /home/neuberfran/neuber/gcc-arm-none-eabi-10.3-2021.10/bin/../lib/gcc/arm-none-eabi/10.3.1/../../../../arm-none-eabi/lib/thumb/v7e-m+fp/hard/libc_nano.a(lib_a-abort.o)
 .ARM.attributes
                0x0000000000000960       0x34 /home/neuberfran/neuber/gcc-arm-none-eabi-10.3-2021.10/bin/../lib/gcc/arm-none-eabi/10.3.1/../../../../arm-none-eabi/lib/thumb/v7e-m+fp/hard/libc_nano.a(lib_a-fflush.o)
 .ARM.attributes
                0x0000000000000994       0x34 /home/neuberfran/neuber/gcc-arm-none-eabi-10.3-2021.10/bin/../lib/gcc/arm-none-eabi/10.3.1/../../../../arm-none-eabi/lib/thumb/v7e-m+fp/hard/libc_nano.a(lib_a-findfp.o)
 .ARM.attributes
                0x00000000000009c8       0x34 /home/neuberfran/neuber/gcc-arm-none-eabi-10.3-2021.10/bin/../lib/gcc/arm-none-eabi/10.3.1/../../../../arm-none-eabi/lib/thumb/v7e-m+fp/hard/libc_nano.a(lib_a-fwalk.o)
 .ARM.attributes
                0x00000000000009fc       0x34 /home/neuberfran/neuber/gcc-arm-none-eabi-10.3-2021.10/bin/../lib/gcc/arm-none-eabi/10.3.1/../../../../arm-none-eabi/lib/thumb/v7e-m+fp/hard/libc_nano.a(lib_a-lock.o)
 .ARM.attributes
                0x0000000000000a30       0x34 /home/neuberfran/neuber/gcc-arm-none-eabi-10.3-2021.10/bin/../lib/gcc/arm-none-eabi/10.3.1/../../../../arm-none-eabi/lib/thumb/v7e-m+fp/hard/libc_nano.a(lib_a-makebuf.o)
 .ARM.attributes
                0x0000000000000a64       0x1c /home/neuberfran/neuber/gcc-arm-none-eabi-10.3-2021.10/bin/../lib/gcc/arm-none-eabi/10.3.1/../../../../arm-none-eabi/lib/thumb/v7e-m+fp/hard/libc_nano.a(lib_a-memchr.o)
 .ARM.attributes
                0x0000000000000a80       0x34 /home/neuberfran/neuber/gcc-arm-none-eabi-10.3-2021.10/bin/../lib/gcc/arm-none-eabi/10.3.1/../../../../arm-none-eabi/lib/thumb/v7e-m+fp/hard/libc_nano.a(lib_a-nano-freer.o)
 .ARM.attributes
                0x0000000000000ab4       0x34 /home/neuberfran/neuber/gcc-arm-none-eabi-10.3-2021.10/bin/../lib/gcc/arm-none-eabi/10.3.1/../../../../arm-none-eabi/lib/thumb/v7e-m+fp/hard/libc_nano.a(lib_a-nano-mallocr.o)
 .ARM.attributes
                0x0000000000000ae8       0x34 /home/neuberfran/neuber/gcc-arm-none-eabi-10.3-2021.10/bin/../lib/gcc/arm-none-eabi/10.3.1/../../../../arm-none-eabi/lib/thumb/v7e-m+fp/hard/libc_nano.a(lib_a-sbrkr.o)
 .ARM.attributes
                0x0000000000000b1c       0x34 /home/neuberfran/neuber/gcc-arm-none-eabi-10.3-2021.10/bin/../lib/gcc/arm-none-eabi/10.3.1/../../../../arm-none-eabi/lib/thumb/v7e-m+fp/hard/libc_nano.a(lib_a-signal.o)
 .ARM.attributes
                0x0000000000000b50       0x34 /home/neuberfran/neuber/gcc-arm-none-eabi-10.3-2021.10/bin/../lib/gcc/arm-none-eabi/10.3.1/../../../../arm-none-eabi/lib/thumb/v7e-m+fp/hard/libc_nano.a(lib_a-signalr.o)
 .ARM.attributes
                0x0000000000000b84       0x34 /home/neuberfran/neuber/gcc-arm-none-eabi-10.3-2021.10/bin/../lib/gcc/arm-none-eabi/10.3.1/../../../../arm-none-eabi/lib/thumb/v7e-m+fp/hard/libc_nano.a(lib_a-stdio.o)
 .ARM.attributes
                0x0000000000000bb8       0x34 /home/neuberfran/neuber/gcc-arm-none-eabi-10.3-2021.10/bin/../lib/gcc/arm-none-eabi/10.3.1/../../../../arm-none-eabi/lib/thumb/v7e-m+fp/hard/libc_nano.a(lib_a-writer.o)
 .ARM.attributes
                0x0000000000000bec       0x34 /home/neuberfran/neuber/gcc-arm-none-eabi-10.3-2021.10/bin/../lib/gcc/arm-none-eabi/10.3.1/../../../../arm-none-eabi/lib/thumb/v7e-m+fp/hard/libc_nano.a(lib_a-closer.o)
 .ARM.attributes
                0x0000000000000c20       0x34 /home/neuberfran/neuber/gcc-arm-none-eabi-10.3-2021.10/bin/../lib/gcc/arm-none-eabi/10.3.1/../../../../arm-none-eabi/lib/thumb/v7e-m+fp/hard/libc_nano.a(lib_a-fstatr.o)
 .ARM.attributes
                0x0000000000000c54       0x34 /home/neuberfran/neuber/gcc-arm-none-eabi-10.3-2021.10/bin/../lib/gcc/arm-none-eabi/10.3.1/../../../../arm-none-eabi/lib/thumb/v7e-m+fp/hard/libc_nano.a(lib_a-isattyr.o)
 .ARM.attributes
                0x0000000000000c88       0x34 /home/neuberfran/neuber/gcc-arm-none-eabi-10.3-2021.10/bin/../lib/gcc/arm-none-eabi/10.3.1/../../../../arm-none-eabi/lib/thumb/v7e-m+fp/hard/libc_nano.a(lib_a-lseekr.o)
 .ARM.attributes
                0x0000000000000cbc       0x34 /home/neuberfran/neuber/gcc-arm-none-eabi-10.3-2021.10/bin/../lib/gcc/arm-none-eabi/10.3.1/../../../../arm-none-eabi/lib/thumb/v7e-m+fp/hard/libc_nano.a(lib_a-mlock.o)
 .ARM.attributes
                0x0000000000000cf0       0x34 /home/neuberfran/neuber/gcc-arm-none-eabi-10.3-2021.10/bin/../lib/gcc/arm-none-eabi/10.3.1/../../../../arm-none-eabi/lib/thumb/v7e-m+fp/hard/libc_nano.a(lib_a-readr.o)
 .ARM.attributes
                0x0000000000000d24       0x34 /home/neuberfran/neuber/gcc-arm-none-eabi-10.3-2021.10/bin/../lib/gcc/arm-none-eabi/10.3.1/../../../../arm-none-eabi/lib/thumb/v7e-m+fp/hard/libc_nano.a(lib_a-reent.o)
 .ARM.attributes
                0x0000000000000d58       0x34 /home/neuberfran/neuber/gcc-arm-none-eabi-10.3-2021.10/bin/../lib/gcc/arm-none-eabi/10.3.1/../../../../arm-none-eabi/lib/thumb/v7e-m+fp/hard/libnosys.a(close.o)
 .ARM.attributes
                0x0000000000000d8c       0x34 /home/neuberfran/neuber/gcc-arm-none-eabi-10.3-2021.10/bin/../lib/gcc/arm-none-eabi/10.3.1/../../../../arm-none-eabi/lib/thumb/v7e-m+fp/hard/libnosys.a(fstat.o)
 .ARM.attributes
                0x0000000000000dc0       0x34 /home/neuberfran/neuber/gcc-arm-none-eabi-10.3-2021.10/bin/../lib/gcc/arm-none-eabi/10.3.1/../../../../arm-none-eabi/lib/thumb/v7e-m+fp/hard/libnosys.a(getpid.o)
 .ARM.attributes
                0x0000000000000df4       0x34 /home/neuberfran/neuber/gcc-arm-none-eabi-10.3-2021.10/bin/../lib/gcc/arm-none-eabi/10.3.1/../../../../arm-none-eabi/lib/thumb/v7e-m+fp/hard/libnosys.a(isatty.o)
 .ARM.attributes
                0x0000000000000e28       0x34 /home/neuberfran/neuber/gcc-arm-none-eabi-10.3-2021.10/bin/../lib/gcc/arm-none-eabi/10.3.1/../../../../arm-none-eabi/lib/thumb/v7e-m+fp/hard/libnosys.a(kill.o)
 .ARM.attributes
                0x0000000000000e5c       0x34 /home/neuberfran/neuber/gcc-arm-none-eabi-10.3-2021.10/bin/../lib/gcc/arm-none-eabi/10.3.1/../../../../arm-none-eabi/lib/thumb/v7e-m+fp/hard/libnosys.a(lseek.o)
 .ARM.attributes
                0x0000000000000e90       0x34 /home/neuberfran/neuber/gcc-arm-none-eabi-10.3-2021.10/bin/../lib/gcc/arm-none-eabi/10.3.1/../../../../arm-none-eabi/lib/thumb/v7e-m+fp/hard/libnosys.a(sbrk.o)
 .ARM.attributes
                0x0000000000000ec4       0x34 /home/neuberfran/neuber/gcc-arm-none-eabi-10.3-2021.10/bin/../lib/gcc/arm-none-eabi/10.3.1/../../../../arm-none-eabi/lib/thumb/v7e-m+fp/hard/libnosys.a(_exit.o)
 .ARM.attributes
                0x0000000000000ef8       0x1e /home/neuberfran/neuber/gcc-arm-none-eabi-10.3-2021.10/bin/../lib/gcc/arm-none-eabi/10.3.1/thumb/v7e-m+fp/hard/crtn.o
                0x0000000000000001                ASSERT ((__StackLimit >= __HeapLimit), region m_data overflowed with stack and heap)
OUTPUT(debug/rpmsg_str_echo_freertos_example.elf elf32-littlearm)
LOAD linker stubs

.debug_info     0x0000000000000000    0x14f74
 .debug_info    0x0000000000000000      0x332 CMakeFiles/rpmsg_str_echo_freertos_example.dir/home/neuberfran/projects/freertos-tn/rtos/FreeRTOS/Source/portable/GCC/ARM_CM4F/port.c.obj
 .debug_info    0x0000000000000332       0x26 CMakeFiles/rpmsg_str_echo_freertos_example.dir/home/neuberfran/projects/freertos-tn/platform/devices/MCIMX7D/startup/gcc/startup_MCIMX7D_M4.S.obj
 .debug_info    0x0000000000000358      0x2d0 CMakeFiles/rpmsg_str_echo_freertos_example.dir/home/neuberfran/projects/freertos-tn/rtos/FreeRTOS/Source/portable/MemMang/heap_2.c.obj
 .debug_info    0x0000000000000628     0x1692 CMakeFiles/rpmsg_str_echo_freertos_example.dir/home/neuberfran/projects/freertos-tn/examples/imx7d_pico_m4/demo_apps/rpmsg/str_echo_freertos/str_echo_freertos.c.obj
 .debug_info    0x0000000000001cba     0x10a0 CMakeFiles/rpmsg_str_echo_freertos_example.dir/home/neuberfran/projects/freertos-tn/middleware/multicore/open-amp/rpmsg/rpmsg_rtos.c.obj
 .debug_info    0x0000000000002d5a     0x1347 CMakeFiles/rpmsg_str_echo_freertos_example.dir/home/neuberfran/projects/freertos-tn/middleware/multicore/open-amp/porting/imx7d_m4/platform.c.obj
 .debug_info    0x00000000000040a1      0x92c CMakeFiles/rpmsg_str_echo_freertos_example.dir/home/neuberfran/projects/freertos-tn/middleware/multicore/open-amp/porting/imx7d_m4/platform_info.c.obj
 .debug_info    0x00000000000049cd      0xc9e CMakeFiles/rpmsg_str_echo_freertos_example.dir/home/neuberfran/projects/freertos-tn/middleware/multicore/open-amp/common/hil/hil.c.obj
 .debug_info    0x000000000000566b       0xe3 CMakeFiles/rpmsg_str_echo_freertos_example.dir/home/neuberfran/projects/freertos-tn/middleware/multicore/open-amp/common/llist/llist.c.obj
 .debug_info    0x000000000000574e      0x2db CMakeFiles/rpmsg_str_echo_freertos_example.dir/home/neuberfran/projects/freertos-tn/middleware/multicore/open-amp/common/shm/sh_mem.c.obj
 .debug_info    0x0000000000005a29     0x11fb CMakeFiles/rpmsg_str_echo_freertos_example.dir/home/neuberfran/projects/freertos-tn/middleware/multicore/open-amp/rpmsg/remote_device.c.obj
 .debug_info    0x0000000000006c24      0xf28 CMakeFiles/rpmsg_str_echo_freertos_example.dir/home/neuberfran/projects/freertos-tn/middleware/multicore/open-amp/rpmsg/rpmsg.c.obj
 .debug_info    0x0000000000007b4c      0xdce CMakeFiles/rpmsg_str_echo_freertos_example.dir/home/neuberfran/projects/freertos-tn/middleware/multicore/open-amp/rpmsg/rpmsg_ext.c.obj
 .debug_info    0x000000000000891a     0x14d5 CMakeFiles/rpmsg_str_echo_freertos_example.dir/home/neuberfran/projects/freertos-tn/middleware/multicore/open-amp/rpmsg/rpmsg_core.c.obj
 .debug_info    0x0000000000009def      0xcc1 CMakeFiles/rpmsg_str_echo_freertos_example.dir/home/neuberfran/projects/freertos-tn/middleware/multicore/open-amp/virtio/virtqueue.c.obj
 .debug_info    0x000000000000aab0      0x9d4 CMakeFiles/rpmsg_str_echo_freertos_example.dir/home/neuberfran/projects/freertos-tn/middleware/multicore/open-amp/porting/env/freertos/rpmsg_porting.c.obj
 .debug_info    0x000000000000b484      0x2af CMakeFiles/rpmsg_str_echo_freertos_example.dir/home/neuberfran/projects/freertos-tn/rtos/FreeRTOS/Source/list.c.obj
 .debug_info    0x000000000000b733      0xa55 CMakeFiles/rpmsg_str_echo_freertos_example.dir/home/neuberfran/projects/freertos-tn/rtos/FreeRTOS/Source/queue.c.obj
 .debug_info    0x000000000000c188      0xc5e CMakeFiles/rpmsg_str_echo_freertos_example.dir/home/neuberfran/projects/freertos-tn/rtos/FreeRTOS/Source/tasks.c.obj
 .debug_info    0x000000000000cde6      0x6d4 CMakeFiles/rpmsg_str_echo_freertos_example.dir/home/neuberfran/projects/freertos-tn/platform/drivers/src/ccm_analog_imx7d.c.obj
 .debug_info    0x000000000000d4ba      0x4d0 CMakeFiles/rpmsg_str_echo_freertos_example.dir/home/neuberfran/projects/freertos-tn/platform/drivers/src/ccm_imx7d.c.obj
 .debug_info    0x000000000000d98a      0x909 CMakeFiles/rpmsg_str_echo_freertos_example.dir/home/neuberfran/projects/freertos-tn/platform/utilities/src/debug_console_imx.c.obj
 .debug_info    0x000000000000e293      0x634 CMakeFiles/rpmsg_str_echo_freertos_example.dir/home/neuberfran/projects/freertos-tn/platform/utilities/src/print_scan.c.obj
 .debug_info    0x000000000000e8c7      0xac4 CMakeFiles/rpmsg_str_echo_freertos_example.dir/home/neuberfran/projects/freertos-tn/platform/devices/MCIMX7D/startup/system_MCIMX7D_M4.c.obj
 .debug_info    0x000000000000f38b     0x20cc CMakeFiles/rpmsg_str_echo_freertos_example.dir/home/neuberfran/projects/freertos-tn/examples/imx7d_pico_m4/pin_mux.c.obj
 .debug_info    0x0000000000011457     0x10cd CMakeFiles/rpmsg_str_echo_freertos_example.dir/home/neuberfran/projects/freertos-tn/examples/imx7d_pico_m4/board.c.obj
 .debug_info    0x0000000000012524     0x1122 CMakeFiles/rpmsg_str_echo_freertos_example.dir/home/neuberfran/projects/freertos-tn/examples/imx7d_pico_m4/clock_freq.c.obj
 .debug_info    0x0000000000013646      0xa69 CMakeFiles/rpmsg_str_echo_freertos_example.dir/home/neuberfran/projects/freertos-tn/examples/imx7d_pico_m4/demo_apps/rpmsg/str_echo_freertos/hardware_init.c.obj
 .debug_info    0x00000000000140af      0xa29 CMakeFiles/rpmsg_str_echo_freertos_example.dir/home/neuberfran/projects/freertos-tn/platform/drivers/src/uart_imx.c.obj
 .debug_info    0x0000000000014ad8      0x49c CMakeFiles/rpmsg_str_echo_freertos_example.dir/home/neuberfran/projects/freertos-tn/platform/drivers/src/mu_imx.c.obj

.debug_abbrev   0x0000000000000000     0x32b9
 .debug_abbrev  0x0000000000000000      0x1a6 CMakeFiles/rpmsg_str_echo_freertos_example.dir/home/neuberfran/projects/freertos-tn/rtos/FreeRTOS/Source/portable/GCC/ARM_CM4F/port.c.obj
 .debug_abbrev  0x00000000000001a6       0x14 CMakeFiles/rpmsg_str_echo_freertos_example.dir/home/neuberfran/projects/freertos-tn/platform/devices/MCIMX7D/startup/gcc/startup_MCIMX7D_M4.S.obj
 .debug_abbrev  0x00000000000001ba      0x16a CMakeFiles/rpmsg_str_echo_freertos_example.dir/home/neuberfran/projects/freertos-tn/rtos/FreeRTOS/Source/portable/MemMang/heap_2.c.obj
 .debug_abbrev  0x0000000000000324      0x263 CMakeFiles/rpmsg_str_echo_freertos_example.dir/home/neuberfran/projects/freertos-tn/examples/imx7d_pico_m4/demo_apps/rpmsg/str_echo_freertos/str_echo_freertos.c.obj
 .debug_abbrev  0x0000000000000587      0x230 CMakeFiles/rpmsg_str_echo_freertos_example.dir/home/neuberfran/projects/freertos-tn/middleware/multicore/open-amp/rpmsg/rpmsg_rtos.c.obj
 .debug_abbrev  0x00000000000007b7      0x321 CMakeFiles/rpmsg_str_echo_freertos_example.dir/home/neuberfran/projects/freertos-tn/middleware/multicore/open-amp/porting/imx7d_m4/platform.c.obj
 .debug_abbrev  0x0000000000000ad8      0x15b CMakeFiles/rpmsg_str_echo_freertos_example.dir/home/neuberfran/projects/freertos-tn/middleware/multicore/open-amp/porting/imx7d_m4/platform_info.c.obj
 .debug_abbrev  0x0000000000000c33      0x216 CMakeFiles/rpmsg_str_echo_freertos_example.dir/home/neuberfran/projects/freertos-tn/middleware/multicore/open-amp/common/hil/hil.c.obj
 .debug_abbrev  0x0000000000000e49       0x98 CMakeFiles/rpmsg_str_echo_freertos_example.dir/home/neuberfran/projects/freertos-tn/middleware/multicore/open-amp/common/llist/llist.c.obj
 .debug_abbrev  0x0000000000000ee1      0x122 CMakeFiles/rpmsg_str_echo_freertos_example.dir/home/neuberfran/projects/freertos-tn/middleware/multicore/open-amp/common/shm/sh_mem.c.obj
 .debug_abbrev  0x0000000000001003      0x270 CMakeFiles/rpmsg_str_echo_freertos_example.dir/home/neuberfran/projects/freertos-tn/middleware/multicore/open-amp/rpmsg/remote_device.c.obj
 .debug_abbrev  0x0000000000001273      0x1f8 CMakeFiles/rpmsg_str_echo_freertos_example.dir/home/neuberfran/projects/freertos-tn/middleware/multicore/open-amp/rpmsg/rpmsg.c.obj
 .debug_abbrev  0x000000000000146b      0x17e CMakeFiles/rpmsg_str_echo_freertos_example.dir/home/neuberfran/projects/freertos-tn/middleware/multicore/open-amp/rpmsg/rpmsg_ext.c.obj
 .debug_abbrev  0x00000000000015e9      0x252 CMakeFiles/rpmsg_str_echo_freertos_example.dir/home/neuberfran/projects/freertos-tn/middleware/multicore/open-amp/rpmsg/rpmsg_core.c.obj
 .debug_abbrev  0x000000000000183b      0x27d CMakeFiles/rpmsg_str_echo_freertos_example.dir/home/neuberfran/projects/freertos-tn/middleware/multicore/open-amp/virtio/virtqueue.c.obj
 .debug_abbrev  0x0000000000001ab8      0x1fd CMakeFiles/rpmsg_str_echo_freertos_example.dir/home/neuberfran/projects/freertos-tn/middleware/multicore/open-amp/porting/env/freertos/rpmsg_porting.c.obj
 .debug_abbrev  0x0000000000001cb5       0xe8 CMakeFiles/rpmsg_str_echo_freertos_example.dir/home/neuberfran/projects/freertos-tn/rtos/FreeRTOS/Source/list.c.obj
 .debug_abbrev  0x0000000000001d9d      0x1be CMakeFiles/rpmsg_str_echo_freertos_example.dir/home/neuberfran/projects/freertos-tn/rtos/FreeRTOS/Source/queue.c.obj
 .debug_abbrev  0x0000000000001f5b      0x21c CMakeFiles/rpmsg_str_echo_freertos_example.dir/home/neuberfran/projects/freertos-tn/rtos/FreeRTOS/Source/tasks.c.obj
 .debug_abbrev  0x0000000000002177      0x167 CMakeFiles/rpmsg_str_echo_freertos_example.dir/home/neuberfran/projects/freertos-tn/platform/drivers/src/ccm_analog_imx7d.c.obj
 .debug_abbrev  0x00000000000022de      0x130 CMakeFiles/rpmsg_str_echo_freertos_example.dir/home/neuberfran/projects/freertos-tn/platform/drivers/src/ccm_imx7d.c.obj
 .debug_abbrev  0x000000000000240e      0x299 CMakeFiles/rpmsg_str_echo_freertos_example.dir/home/neuberfran/projects/freertos-tn/platform/utilities/src/debug_console_imx.c.obj
 .debug_abbrev  0x00000000000026a7      0x1b5 CMakeFiles/rpmsg_str_echo_freertos_example.dir/home/neuberfran/projects/freertos-tn/platform/utilities/src/print_scan.c.obj
 .debug_abbrev  0x000000000000285c      0x138 CMakeFiles/rpmsg_str_echo_freertos_example.dir/home/neuberfran/projects/freertos-tn/platform/devices/MCIMX7D/startup/system_MCIMX7D_M4.c.obj
 .debug_abbrev  0x0000000000002994      0x110 CMakeFiles/rpmsg_str_echo_freertos_example.dir/home/neuberfran/projects/freertos-tn/examples/imx7d_pico_m4/pin_mux.c.obj
 .debug_abbrev  0x0000000000002aa4      0x1c9 CMakeFiles/rpmsg_str_echo_freertos_example.dir/home/neuberfran/projects/freertos-tn/examples/imx7d_pico_m4/board.c.obj
 .debug_abbrev  0x0000000000002c6d      0x170 CMakeFiles/rpmsg_str_echo_freertos_example.dir/home/neuberfran/projects/freertos-tn/examples/imx7d_pico_m4/clock_freq.c.obj
 .debug_abbrev  0x0000000000002ddd      0x191 CMakeFiles/rpmsg_str_echo_freertos_example.dir/home/neuberfran/projects/freertos-tn/examples/imx7d_pico_m4/demo_apps/rpmsg/str_echo_freertos/hardware_init.c.obj
 .debug_abbrev  0x0000000000002f6e      0x1db CMakeFiles/rpmsg_str_echo_freertos_example.dir/home/neuberfran/projects/freertos-tn/platform/drivers/src/uart_imx.c.obj
 .debug_abbrev  0x0000000000003149      0x170 CMakeFiles/rpmsg_str_echo_freertos_example.dir/home/neuberfran/projects/freertos-tn/platform/drivers/src/mu_imx.c.obj

.debug_aranges  0x0000000000000000      0xda0
 .debug_aranges
                0x0000000000000000       0x98 CMakeFiles/rpmsg_str_echo_freertos_example.dir/home/neuberfran/projects/freertos-tn/rtos/FreeRTOS/Source/portable/GCC/ARM_CM4F/port.c.obj
 .debug_aranges
                0x0000000000000098       0x20 CMakeFiles/rpmsg_str_echo_freertos_example.dir/home/neuberfran/projects/freertos-tn/platform/devices/MCIMX7D/startup/gcc/startup_MCIMX7D_M4.S.obj
 .debug_aranges
                0x00000000000000b8       0x40 CMakeFiles/rpmsg_str_echo_freertos_example.dir/home/neuberfran/projects/freertos-tn/rtos/FreeRTOS/Source/portable/MemMang/heap_2.c.obj
 .debug_aranges
                0x00000000000000f8       0x48 CMakeFiles/rpmsg_str_echo_freertos_example.dir/home/neuberfran/projects/freertos-tn/examples/imx7d_pico_m4/demo_apps/rpmsg/str_echo_freertos/str_echo_freertos.c.obj
 .debug_aranges
                0x0000000000000140       0x80 CMakeFiles/rpmsg_str_echo_freertos_example.dir/home/neuberfran/projects/freertos-tn/middleware/multicore/open-amp/rpmsg/rpmsg_rtos.c.obj
 .debug_aranges
                0x00000000000001c0       0xc8 CMakeFiles/rpmsg_str_echo_freertos_example.dir/home/neuberfran/projects/freertos-tn/middleware/multicore/open-amp/porting/imx7d_m4/platform.c.obj
 .debug_aranges
                0x0000000000000288       0x28 CMakeFiles/rpmsg_str_echo_freertos_example.dir/home/neuberfran/projects/freertos-tn/middleware/multicore/open-amp/porting/imx7d_m4/platform_info.c.obj
 .debug_aranges
                0x00000000000002b0       0x98 CMakeFiles/rpmsg_str_echo_freertos_example.dir/home/neuberfran/projects/freertos-tn/middleware/multicore/open-amp/common/hil/hil.c.obj
 .debug_aranges
                0x0000000000000348       0x28 CMakeFiles/rpmsg_str_echo_freertos_example.dir/home/neuberfran/projects/freertos-tn/middleware/multicore/open-amp/common/llist/llist.c.obj
 .debug_aranges
                0x0000000000000370       0x40 CMakeFiles/rpmsg_str_echo_freertos_example.dir/home/neuberfran/projects/freertos-tn/middleware/multicore/open-amp/common/shm/sh_mem.c.obj
 .debug_aranges
                0x00000000000003b0       0xa0 CMakeFiles/rpmsg_str_echo_freertos_example.dir/home/neuberfran/projects/freertos-tn/middleware/multicore/open-amp/rpmsg/remote_device.c.obj
 .debug_aranges
                0x0000000000000450       0x58 CMakeFiles/rpmsg_str_echo_freertos_example.dir/home/neuberfran/projects/freertos-tn/middleware/multicore/open-amp/rpmsg/rpmsg.c.obj
 .debug_aranges
                0x00000000000004a8       0x38 CMakeFiles/rpmsg_str_echo_freertos_example.dir/home/neuberfran/projects/freertos-tn/middleware/multicore/open-amp/rpmsg/rpmsg_ext.c.obj
 .debug_aranges
                0x00000000000004e0       0xb0 CMakeFiles/rpmsg_str_echo_freertos_example.dir/home/neuberfran/projects/freertos-tn/middleware/multicore/open-amp/rpmsg/rpmsg_core.c.obj
 .debug_aranges
                0x0000000000000590       0xd8 CMakeFiles/rpmsg_str_echo_freertos_example.dir/home/neuberfran/projects/freertos-tn/middleware/multicore/open-amp/virtio/virtqueue.c.obj
 .debug_aranges
                0x0000000000000668      0x148 CMakeFiles/rpmsg_str_echo_freertos_example.dir/home/neuberfran/projects/freertos-tn/middleware/multicore/open-amp/porting/env/freertos/rpmsg_porting.c.obj
 .debug_aranges
                0x00000000000007b0       0x40 CMakeFiles/rpmsg_str_echo_freertos_example.dir/home/neuberfran/projects/freertos-tn/rtos/FreeRTOS/Source/list.c.obj
 .debug_aranges
                0x00000000000007f0       0xc0 CMakeFiles/rpmsg_str_echo_freertos_example.dir/home/neuberfran/projects/freertos-tn/rtos/FreeRTOS/Source/queue.c.obj
 .debug_aranges
                0x00000000000008b0      0x108 CMakeFiles/rpmsg_str_echo_freertos_example.dir/home/neuberfran/projects/freertos-tn/rtos/FreeRTOS/Source/tasks.c.obj
 .debug_aranges
                0x00000000000009b8       0x60 CMakeFiles/rpmsg_str_echo_freertos_example.dir/home/neuberfran/projects/freertos-tn/platform/drivers/src/ccm_analog_imx7d.c.obj
 .debug_aranges
                0x0000000000000a18       0x30 CMakeFiles/rpmsg_str_echo_freertos_example.dir/home/neuberfran/projects/freertos-tn/platform/drivers/src/ccm_imx7d.c.obj
 .debug_aranges
                0x0000000000000a48       0x90 CMakeFiles/rpmsg_str_echo_freertos_example.dir/home/neuberfran/projects/freertos-tn/platform/utilities/src/debug_console_imx.c.obj
 .debug_aranges
                0x0000000000000ad8       0x48 CMakeFiles/rpmsg_str_echo_freertos_example.dir/home/neuberfran/projects/freertos-tn/platform/utilities/src/print_scan.c.obj
 .debug_aranges
                0x0000000000000b20       0x28 CMakeFiles/rpmsg_str_echo_freertos_example.dir/home/neuberfran/projects/freertos-tn/platform/devices/MCIMX7D/startup/system_MCIMX7D_M4.c.obj
 .debug_aranges
                0x0000000000000b48       0x30 CMakeFiles/rpmsg_str_echo_freertos_example.dir/home/neuberfran/projects/freertos-tn/examples/imx7d_pico_m4/pin_mux.c.obj
 .debug_aranges
                0x0000000000000b78       0x58 CMakeFiles/rpmsg_str_echo_freertos_example.dir/home/neuberfran/projects/freertos-tn/examples/imx7d_pico_m4/board.c.obj
 .debug_aranges
                0x0000000000000bd0       0x48 CMakeFiles/rpmsg_str_echo_freertos_example.dir/home/neuberfran/projects/freertos-tn/examples/imx7d_pico_m4/clock_freq.c.obj
 .debug_aranges
                0x0000000000000c18       0x30 CMakeFiles/rpmsg_str_echo_freertos_example.dir/home/neuberfran/projects/freertos-tn/examples/imx7d_pico_m4/demo_apps/rpmsg/str_echo_freertos/hardware_init.c.obj
 .debug_aranges
                0x0000000000000c48       0xe8 CMakeFiles/rpmsg_str_echo_freertos_example.dir/home/neuberfran/projects/freertos-tn/platform/drivers/src/uart_imx.c.obj
 .debug_aranges
                0x0000000000000d30       0x70 CMakeFiles/rpmsg_str_echo_freertos_example.dir/home/neuberfran/projects/freertos-tn/platform/drivers/src/mu_imx.c.obj

.debug_ranges   0x0000000000000000      0xbb0
 .debug_ranges  0x0000000000000000       0x88 CMakeFiles/rpmsg_str_echo_freertos_example.dir/home/neuberfran/projects/freertos-tn/rtos/FreeRTOS/Source/portable/GCC/ARM_CM4F/port.c.obj
 .debug_ranges  0x0000000000000088       0x30 CMakeFiles/rpmsg_str_echo_freertos_example.dir/home/neuberfran/projects/freertos-tn/rtos/FreeRTOS/Source/portable/MemMang/heap_2.c.obj
 .debug_ranges  0x00000000000000b8       0x38 CMakeFiles/rpmsg_str_echo_freertos_example.dir/home/neuberfran/projects/freertos-tn/examples/imx7d_pico_m4/demo_apps/rpmsg/str_echo_freertos/str_echo_freertos.c.obj
 .debug_ranges  0x00000000000000f0       0x70 CMakeFiles/rpmsg_str_echo_freertos_example.dir/home/neuberfran/projects/freertos-tn/middleware/multicore/open-amp/rpmsg/rpmsg_rtos.c.obj
 .debug_ranges  0x0000000000000160       0xb8 CMakeFiles/rpmsg_str_echo_freertos_example.dir/home/neuberfran/projects/freertos-tn/middleware/multicore/open-amp/porting/imx7d_m4/platform.c.obj
 .debug_ranges  0x0000000000000218       0x18 CMakeFiles/rpmsg_str_echo_freertos_example.dir/home/neuberfran/projects/freertos-tn/middleware/multicore/open-amp/porting/imx7d_m4/platform_info.c.obj
 .debug_ranges  0x0000000000000230       0x88 CMakeFiles/rpmsg_str_echo_freertos_example.dir/home/neuberfran/projects/freertos-tn/middleware/multicore/open-amp/common/hil/hil.c.obj
 .debug_ranges  0x00000000000002b8       0x18 CMakeFiles/rpmsg_str_echo_freertos_example.dir/home/neuberfran/projects/freertos-tn/middleware/multicore/open-amp/common/llist/llist.c.obj
 .debug_ranges  0x00000000000002d0       0x30 CMakeFiles/rpmsg_str_echo_freertos_example.dir/home/neuberfran/projects/freertos-tn/middleware/multicore/open-amp/common/shm/sh_mem.c.obj
 .debug_ranges  0x0000000000000300       0x90 CMakeFiles/rpmsg_str_echo_freertos_example.dir/home/neuberfran/projects/freertos-tn/middleware/multicore/open-amp/rpmsg/remote_device.c.obj
 .debug_ranges  0x0000000000000390       0x48 CMakeFiles/rpmsg_str_echo_freertos_example.dir/home/neuberfran/projects/freertos-tn/middleware/multicore/open-amp/rpmsg/rpmsg.c.obj
 .debug_ranges  0x00000000000003d8       0x28 CMakeFiles/rpmsg_str_echo_freertos_example.dir/home/neuberfran/projects/freertos-tn/middleware/multicore/open-amp/rpmsg/rpmsg_ext.c.obj
 .debug_ranges  0x0000000000000400       0xa0 CMakeFiles/rpmsg_str_echo_freertos_example.dir/home/neuberfran/projects/freertos-tn/middleware/multicore/open-amp/rpmsg/rpmsg_core.c.obj
 .debug_ranges  0x00000000000004a0       0xc8 CMakeFiles/rpmsg_str_echo_freertos_example.dir/home/neuberfran/projects/freertos-tn/middleware/multicore/open-amp/virtio/virtqueue.c.obj
 .debug_ranges  0x0000000000000568      0x138 CMakeFiles/rpmsg_str_echo_freertos_example.dir/home/neuberfran/projects/freertos-tn/middleware/multicore/open-amp/porting/env/freertos/rpmsg_porting.c.obj
 .debug_ranges  0x00000000000006a0       0x30 CMakeFiles/rpmsg_str_echo_freertos_example.dir/home/neuberfran/projects/freertos-tn/rtos/FreeRTOS/Source/list.c.obj
 .debug_ranges  0x00000000000006d0       0xb0 CMakeFiles/rpmsg_str_echo_freertos_example.dir/home/neuberfran/projects/freertos-tn/rtos/FreeRTOS/Source/queue.c.obj
 .debug_ranges  0x0000000000000780       0xf8 CMakeFiles/rpmsg_str_echo_freertos_example.dir/home/neuberfran/projects/freertos-tn/rtos/FreeRTOS/Source/tasks.c.obj
 .debug_ranges  0x0000000000000878       0x50 CMakeFiles/rpmsg_str_echo_freertos_example.dir/home/neuberfran/projects/freertos-tn/platform/drivers/src/ccm_analog_imx7d.c.obj
 .debug_ranges  0x00000000000008c8       0x20 CMakeFiles/rpmsg_str_echo_freertos_example.dir/home/neuberfran/projects/freertos-tn/platform/drivers/src/ccm_imx7d.c.obj
 .debug_ranges  0x00000000000008e8       0x80 CMakeFiles/rpmsg_str_echo_freertos_example.dir/home/neuberfran/projects/freertos-tn/platform/utilities/src/debug_console_imx.c.obj
 .debug_ranges  0x0000000000000968       0x38 CMakeFiles/rpmsg_str_echo_freertos_example.dir/home/neuberfran/projects/freertos-tn/platform/utilities/src/print_scan.c.obj
 .debug_ranges  0x00000000000009a0       0x18 CMakeFiles/rpmsg_str_echo_freertos_example.dir/home/neuberfran/projects/freertos-tn/platform/devices/MCIMX7D/startup/system_MCIMX7D_M4.c.obj
 .debug_ranges  0x00000000000009b8       0x20 CMakeFiles/rpmsg_str_echo_freertos_example.dir/home/neuberfran/projects/freertos-tn/examples/imx7d_pico_m4/pin_mux.c.obj
 .debug_ranges  0x00000000000009d8       0x48 CMakeFiles/rpmsg_str_echo_freertos_example.dir/home/neuberfran/projects/freertos-tn/examples/imx7d_pico_m4/board.c.obj
 .debug_ranges  0x0000000000000a20       0x38 CMakeFiles/rpmsg_str_echo_freertos_example.dir/home/neuberfran/projects/freertos-tn/examples/imx7d_pico_m4/clock_freq.c.obj
 .debug_ranges  0x0000000000000a58       0x20 CMakeFiles/rpmsg_str_echo_freertos_example.dir/home/neuberfran/projects/freertos-tn/examples/imx7d_pico_m4/demo_apps/rpmsg/str_echo_freertos/hardware_init.c.obj
 .debug_ranges  0x0000000000000a78       0xd8 CMakeFiles/rpmsg_str_echo_freertos_example.dir/home/neuberfran/projects/freertos-tn/platform/drivers/src/uart_imx.c.obj
 .debug_ranges  0x0000000000000b50       0x60 CMakeFiles/rpmsg_str_echo_freertos_example.dir/home/neuberfran/projects/freertos-tn/platform/drivers/src/mu_imx.c.obj

.debug_line     0x0000000000000000     0xae1f
 .debug_line    0x0000000000000000      0x4ad CMakeFiles/rpmsg_str_echo_freertos_example.dir/home/neuberfran/projects/freertos-tn/rtos/FreeRTOS/Source/portable/GCC/ARM_CM4F/port.c.obj
 .debug_line    0x00000000000004ad       0xa7 CMakeFiles/rpmsg_str_echo_freertos_example.dir/home/neuberfran/projects/freertos-tn/platform/devices/MCIMX7D/startup/gcc/startup_MCIMX7D_M4.S.obj
 .debug_line    0x0000000000000554      0x2ff CMakeFiles/rpmsg_str_echo_freertos_example.dir/home/neuberfran/projects/freertos-tn/rtos/FreeRTOS/Source/portable/MemMang/heap_2.c.obj
 .debug_line    0x0000000000000853      0xac6 CMakeFiles/rpmsg_str_echo_freertos_example.dir/home/neuberfran/projects/freertos-tn/examples/imx7d_pico_m4/demo_apps/rpmsg/str_echo_freertos/str_echo_freertos.c.obj
 .debug_line    0x0000000000001319      0x7ef CMakeFiles/rpmsg_str_echo_freertos_example.dir/home/neuberfran/projects/freertos-tn/middleware/multicore/open-amp/rpmsg/rpmsg_rtos.c.obj
 .debug_line    0x0000000000001b08      0x83f CMakeFiles/rpmsg_str_echo_freertos_example.dir/home/neuberfran/projects/freertos-tn/middleware/multicore/open-amp/porting/imx7d_m4/platform.c.obj
 .debug_line    0x0000000000002347      0x34f CMakeFiles/rpmsg_str_echo_freertos_example.dir/home/neuberfran/projects/freertos-tn/middleware/multicore/open-amp/porting/imx7d_m4/platform_info.c.obj
 .debug_line    0x0000000000002696      0x476 CMakeFiles/rpmsg_str_echo_freertos_example.dir/home/neuberfran/projects/freertos-tn/middleware/multicore/open-amp/common/hil/hil.c.obj
 .debug_line    0x0000000000002b0c      0x11e CMakeFiles/rpmsg_str_echo_freertos_example.dir/home/neuberfran/projects/freertos-tn/middleware/multicore/open-amp/common/llist/llist.c.obj
 .debug_line    0x0000000000002c2a      0x2e4 CMakeFiles/rpmsg_str_echo_freertos_example.dir/home/neuberfran/projects/freertos-tn/middleware/multicore/open-amp/common/shm/sh_mem.c.obj
 .debug_line    0x0000000000002f0e      0x8a1 CMakeFiles/rpmsg_str_echo_freertos_example.dir/home/neuberfran/projects/freertos-tn/middleware/multicore/open-amp/rpmsg/remote_device.c.obj
 .debug_line    0x00000000000037af      0x64b CMakeFiles/rpmsg_str_echo_freertos_example.dir/home/neuberfran/projects/freertos-tn/middleware/multicore/open-amp/rpmsg/rpmsg.c.obj
 .debug_line    0x0000000000003dfa      0x5c3 CMakeFiles/rpmsg_str_echo_freertos_example.dir/home/neuberfran/projects/freertos-tn/middleware/multicore/open-amp/rpmsg/rpmsg_ext.c.obj
 .debug_line    0x00000000000043bd      0x9ab CMakeFiles/rpmsg_str_echo_freertos_example.dir/home/neuberfran/projects/freertos-tn/middleware/multicore/open-amp/rpmsg/rpmsg_core.c.obj
 .debug_line    0x0000000000004d68      0x7da CMakeFiles/rpmsg_str_echo_freertos_example.dir/home/neuberfran/projects/freertos-tn/middleware/multicore/open-amp/virtio/virtqueue.c.obj
 .debug_line    0x0000000000005542      0x88c CMakeFiles/rpmsg_str_echo_freertos_example.dir/home/neuberfran/projects/freertos-tn/middleware/multicore/open-amp/porting/env/freertos/rpmsg_porting.c.obj
 .debug_line    0x0000000000005dce      0x336 CMakeFiles/rpmsg_str_echo_freertos_example.dir/home/neuberfran/projects/freertos-tn/rtos/FreeRTOS/Source/list.c.obj
 .debug_line    0x0000000000006104      0x9f7 CMakeFiles/rpmsg_str_echo_freertos_example.dir/home/neuberfran/projects/freertos-tn/rtos/FreeRTOS/Source/queue.c.obj
 .debug_line    0x0000000000006afb      0xb6a CMakeFiles/rpmsg_str_echo_freertos_example.dir/home/neuberfran/projects/freertos-tn/rtos/FreeRTOS/Source/tasks.c.obj
 .debug_line    0x0000000000007665      0x4e1 CMakeFiles/rpmsg_str_echo_freertos_example.dir/home/neuberfran/projects/freertos-tn/platform/drivers/src/ccm_analog_imx7d.c.obj
 .debug_line    0x0000000000007b46      0x234 CMakeFiles/rpmsg_str_echo_freertos_example.dir/home/neuberfran/projects/freertos-tn/platform/drivers/src/ccm_imx7d.c.obj
 .debug_line    0x0000000000007d7a      0x6b0 CMakeFiles/rpmsg_str_echo_freertos_example.dir/home/neuberfran/projects/freertos-tn/platform/utilities/src/debug_console_imx.c.obj
 .debug_line    0x000000000000842a      0xafa CMakeFiles/rpmsg_str_echo_freertos_example.dir/home/neuberfran/projects/freertos-tn/platform/utilities/src/print_scan.c.obj
 .debug_line    0x0000000000008f24      0x612 CMakeFiles/rpmsg_str_echo_freertos_example.dir/home/neuberfran/projects/freertos-tn/platform/devices/MCIMX7D/startup/system_MCIMX7D_M4.c.obj
 .debug_line    0x0000000000009536      0x30e CMakeFiles/rpmsg_str_echo_freertos_example.dir/home/neuberfran/projects/freertos-tn/examples/imx7d_pico_m4/pin_mux.c.obj
 .debug_line    0x0000000000009844      0x3e5 CMakeFiles/rpmsg_str_echo_freertos_example.dir/home/neuberfran/projects/freertos-tn/examples/imx7d_pico_m4/board.c.obj
 .debug_line    0x0000000000009c29      0x406 CMakeFiles/rpmsg_str_echo_freertos_example.dir/home/neuberfran/projects/freertos-tn/examples/imx7d_pico_m4/clock_freq.c.obj
 .debug_line    0x000000000000a02f      0x2ea CMakeFiles/rpmsg_str_echo_freertos_example.dir/home/neuberfran/projects/freertos-tn/examples/imx7d_pico_m4/demo_apps/rpmsg/str_echo_freertos/hardware_init.c.obj
 .debug_line    0x000000000000a319      0x6fc CMakeFiles/rpmsg_str_echo_freertos_example.dir/home/neuberfran/projects/freertos-tn/platform/drivers/src/uart_imx.c.obj
 .debug_line    0x000000000000aa15      0x40a CMakeFiles/rpmsg_str_echo_freertos_example.dir/home/neuberfran/projects/freertos-tn/platform/drivers/src/mu_imx.c.obj

.debug_str      0x0000000000000000     0x90e8
 .debug_str     0x0000000000000000      0x45b CMakeFiles/rpmsg_str_echo_freertos_example.dir/home/neuberfran/projects/freertos-tn/rtos/FreeRTOS/Source/portable/GCC/ARM_CM4F/port.c.obj
                                        0x4b0 (size before relaxing)
 .debug_str     0x000000000000045b       0x6e CMakeFiles/rpmsg_str_echo_freertos_example.dir/home/neuberfran/projects/freertos-tn/platform/devices/MCIMX7D/startup/gcc/startup_MCIMX7D_M4.S.obj
                                         0xd4 (size before relaxing)
 .debug_str     0x00000000000004c9      0x19b CMakeFiles/rpmsg_str_echo_freertos_example.dir/home/neuberfran/projects/freertos-tn/rtos/FreeRTOS/Source/portable/MemMang/heap_2.c.obj
                                        0x3a7 (size before relaxing)
 .debug_str     0x0000000000000664      0xf12 CMakeFiles/rpmsg_str_echo_freertos_example.dir/home/neuberfran/projects/freertos-tn/examples/imx7d_pico_m4/demo_apps/rpmsg/str_echo_freertos/str_echo_freertos.c.obj
                                       0x123a (size before relaxing)
 .debug_str     0x0000000000001576      0x1f2 CMakeFiles/rpmsg_str_echo_freertos_example.dir/home/neuberfran/projects/freertos-tn/middleware/multicore/open-amp/rpmsg/rpmsg_rtos.c.obj
                                        0x91c (size before relaxing)
 .debug_str     0x0000000000001768      0x2fd CMakeFiles/rpmsg_str_echo_freertos_example.dir/home/neuberfran/projects/freertos-tn/middleware/multicore/open-amp/porting/imx7d_m4/platform.c.obj
                                       0x10fc (size before relaxing)
 .debug_str     0x0000000000001a65       0xb2 CMakeFiles/rpmsg_str_echo_freertos_example.dir/home/neuberfran/projects/freertos-tn/middleware/multicore/open-amp/porting/imx7d_m4/platform_info.c.obj
                                        0x6b3 (size before relaxing)
 .debug_str     0x0000000000001b17      0x195 CMakeFiles/rpmsg_str_echo_freertos_example.dir/home/neuberfran/projects/freertos-tn/middleware/multicore/open-amp/common/hil/hil.c.obj
                                        0x78f (size before relaxing)
 .debug_str     0x0000000000001cac       0x76 CMakeFiles/rpmsg_str_echo_freertos_example.dir/home/neuberfran/projects/freertos-tn/middleware/multicore/open-amp/common/llist/llist.c.obj
                                        0x205 (size before relaxing)
 .debug_str     0x0000000000001d22       0xe9 CMakeFiles/rpmsg_str_echo_freertos_example.dir/home/neuberfran/projects/freertos-tn/middleware/multicore/open-amp/common/shm/sh_mem.c.obj
                                        0x34f (size before relaxing)
 .debug_str     0x0000000000001e0b      0x2a3 CMakeFiles/rpmsg_str_echo_freertos_example.dir/home/neuberfran/projects/freertos-tn/middleware/multicore/open-amp/rpmsg/remote_device.c.obj
                                        0xa00 (size before relaxing)
 .debug_str     0x00000000000020ae       0xf2 CMakeFiles/rpmsg_str_echo_freertos_example.dir/home/neuberfran/projects/freertos-tn/middleware/multicore/open-amp/rpmsg/rpmsg.c.obj
                                        0x88b (size before relaxing)
 .debug_str     0x00000000000021a0       0xdc CMakeFiles/rpmsg_str_echo_freertos_example.dir/home/neuberfran/projects/freertos-tn/middleware/multicore/open-amp/rpmsg/rpmsg_ext.c.obj
                                        0x836 (size before relaxing)
 .debug_str     0x000000000000227c      0x1fd CMakeFiles/rpmsg_str_echo_freertos_example.dir/home/neuberfran/projects/freertos-tn/middleware/multicore/open-amp/rpmsg/rpmsg_core.c.obj
                                        0x9a6 (size before relaxing)
 .debug_str     0x0000000000002479      0x2b6 CMakeFiles/rpmsg_str_echo_freertos_example.dir/home/neuberfran/projects/freertos-tn/middleware/multicore/open-amp/virtio/virtqueue.c.obj
                                        0x6f3 (size before relaxing)
 .debug_str     0x000000000000272f      0x338 CMakeFiles/rpmsg_str_echo_freertos_example.dir/home/neuberfran/projects/freertos-tn/middleware/multicore/open-amp/porting/env/freertos/rpmsg_porting.c.obj
                                        0x5e0 (size before relaxing)
 .debug_str     0x0000000000002a67      0x154 CMakeFiles/rpmsg_str_echo_freertos_example.dir/home/neuberfran/projects/freertos-tn/rtos/FreeRTOS/Source/list.c.obj
                                        0x371 (size before relaxing)
 .debug_str     0x0000000000002bbb      0x438 CMakeFiles/rpmsg_str_echo_freertos_example.dir/home/neuberfran/projects/freertos-tn/rtos/FreeRTOS/Source/queue.c.obj
                                        0x731 (size before relaxing)
 .debug_str     0x0000000000002ff3      0x5d6 CMakeFiles/rpmsg_str_echo_freertos_example.dir/home/neuberfran/projects/freertos-tn/rtos/FreeRTOS/Source/tasks.c.obj
                                        0x938 (size before relaxing)
 .debug_str     0x00000000000035c9      0x4a9 CMakeFiles/rpmsg_str_echo_freertos_example.dir/home/neuberfran/projects/freertos-tn/platform/drivers/src/ccm_analog_imx7d.c.obj
                                        0x6da (size before relaxing)
 .debug_str     0x0000000000003a72       0x89 CMakeFiles/rpmsg_str_echo_freertos_example.dir/home/neuberfran/projects/freertos-tn/platform/drivers/src/ccm_imx7d.c.obj
                                        0x435 (size before relaxing)
 .debug_str     0x0000000000003afb      0x72a CMakeFiles/rpmsg_str_echo_freertos_example.dir/home/neuberfran/projects/freertos-tn/platform/utilities/src/debug_console_imx.c.obj
                                        0x985 (size before relaxing)
 .debug_str     0x0000000000004225      0x1a5 CMakeFiles/rpmsg_str_echo_freertos_example.dir/home/neuberfran/projects/freertos-tn/platform/utilities/src/print_scan.c.obj
                                        0x419 (size before relaxing)
 .debug_str     0x00000000000043ca      0x154 CMakeFiles/rpmsg_str_echo_freertos_example.dir/home/neuberfran/projects/freertos-tn/platform/devices/MCIMX7D/startup/system_MCIMX7D_M4.c.obj
                                        0x7f3 (size before relaxing)
 .debug_str     0x000000000000451e     0x2ff1 CMakeFiles/rpmsg_str_echo_freertos_example.dir/home/neuberfran/projects/freertos-tn/examples/imx7d_pico_m4/pin_mux.c.obj
                                       0x3289 (size before relaxing)
 .debug_str     0x000000000000750f     0x1221 CMakeFiles/rpmsg_str_echo_freertos_example.dir/home/neuberfran/projects/freertos-tn/examples/imx7d_pico_m4/board.c.obj
                                       0x1681 (size before relaxing)
 .debug_str     0x0000000000008730      0x505 CMakeFiles/rpmsg_str_echo_freertos_example.dir/home/neuberfran/projects/freertos-tn/examples/imx7d_pico_m4/clock_freq.c.obj
                                        0xe95 (size before relaxing)
 .debug_str     0x0000000000008c35       0x7d CMakeFiles/rpmsg_str_echo_freertos_example.dir/home/neuberfran/projects/freertos-tn/examples/imx7d_pico_m4/demo_apps/rpmsg/str_echo_freertos/hardware_init.c.obj
                                        0xee7 (size before relaxing)
 .debug_str     0x0000000000008cb2      0x333 CMakeFiles/rpmsg_str_echo_freertos_example.dir/home/neuberfran/projects/freertos-tn/platform/drivers/src/uart_imx.c.obj
                                        0x68a (size before relaxing)
 .debug_str     0x0000000000008fe5      0x103 CMakeFiles/rpmsg_str_echo_freertos_example.dir/home/neuberfran/projects/freertos-tn/platform/drivers/src/mu_imx.c.obj
                                        0x3d7 (size before relaxing)

.comment        0x0000000000000000       0x49
 .comment       0x0000000000000000       0x49 CMakeFiles/rpmsg_str_echo_freertos_example.dir/home/neuberfran/projects/freertos-tn/rtos/FreeRTOS/Source/portable/GCC/ARM_CM4F/port.c.obj
                                         0x4a (size before relaxing)
 .comment       0x0000000000000049       0x4a CMakeFiles/rpmsg_str_echo_freertos_example.dir/home/neuberfran/projects/freertos-tn/rtos/FreeRTOS/Source/portable/MemMang/heap_2.c.obj
 .comment       0x0000000000000049       0x4a CMakeFiles/rpmsg_str_echo_freertos_example.dir/home/neuberfran/projects/freertos-tn/examples/imx7d_pico_m4/demo_apps/rpmsg/str_echo_freertos/str_echo_freertos.c.obj
 .comment       0x0000000000000049       0x4a CMakeFiles/rpmsg_str_echo_freertos_example.dir/home/neuberfran/projects/freertos-tn/middleware/multicore/open-amp/rpmsg/rpmsg_rtos.c.obj
 .comment       0x0000000000000049       0x4a CMakeFiles/rpmsg_str_echo_freertos_example.dir/home/neuberfran/projects/freertos-tn/middleware/multicore/open-amp/porting/imx7d_m4/platform.c.obj
 .comment       0x0000000000000049       0x4a CMakeFiles/rpmsg_str_echo_freertos_example.dir/home/neuberfran/projects/freertos-tn/middleware/multicore/open-amp/porting/imx7d_m4/platform_info.c.obj
 .comment       0x0000000000000049       0x4a CMakeFiles/rpmsg_str_echo_freertos_example.dir/home/neuberfran/projects/freertos-tn/middleware/multicore/open-amp/common/hil/hil.c.obj
 .comment       0x0000000000000049       0x4a CMakeFiles/rpmsg_str_echo_freertos_example.dir/home/neuberfran/projects/freertos-tn/middleware/multicore/open-amp/common/llist/llist.c.obj
 .comment       0x0000000000000049       0x4a CMakeFiles/rpmsg_str_echo_freertos_example.dir/home/neuberfran/projects/freertos-tn/middleware/multicore/open-amp/common/shm/sh_mem.c.obj
 .comment       0x0000000000000049       0x4a CMakeFiles/rpmsg_str_echo_freertos_example.dir/home/neuberfran/projects/freertos-tn/middleware/multicore/open-amp/rpmsg/remote_device.c.obj
 .comment       0x0000000000000049       0x4a CMakeFiles/rpmsg_str_echo_freertos_example.dir/home/neuberfran/projects/freertos-tn/middleware/multicore/open-amp/rpmsg/rpmsg.c.obj
 .comment       0x0000000000000049       0x4a CMakeFiles/rpmsg_str_echo_freertos_example.dir/home/neuberfran/projects/freertos-tn/middleware/multicore/open-amp/rpmsg/rpmsg_ext.c.obj
 .comment       0x0000000000000049       0x4a CMakeFiles/rpmsg_str_echo_freertos_example.dir/home/neuberfran/projects/freertos-tn/middleware/multicore/open-amp/rpmsg/rpmsg_core.c.obj
 .comment       0x0000000000000049       0x4a CMakeFiles/rpmsg_str_echo_freertos_example.dir/home/neuberfran/projects/freertos-tn/middleware/multicore/open-amp/virtio/virtqueue.c.obj
 .comment       0x0000000000000049       0x4a CMakeFiles/rpmsg_str_echo_freertos_example.dir/home/neuberfran/projects/freertos-tn/middleware/multicore/open-amp/porting/env/freertos/rpmsg_porting.c.obj
 .comment       0x0000000000000049       0x4a CMakeFiles/rpmsg_str_echo_freertos_example.dir/home/neuberfran/projects/freertos-tn/rtos/FreeRTOS/Source/list.c.obj
 .comment       0x0000000000000049       0x4a CMakeFiles/rpmsg_str_echo_freertos_example.dir/home/neuberfran/projects/freertos-tn/rtos/FreeRTOS/Source/queue.c.obj
 .comment       0x0000000000000049       0x4a CMakeFiles/rpmsg_str_echo_freertos_example.dir/home/neuberfran/projects/freertos-tn/rtos/FreeRTOS/Source/tasks.c.obj
 .comment       0x0000000000000049       0x4a CMakeFiles/rpmsg_str_echo_freertos_example.dir/home/neuberfran/projects/freertos-tn/platform/drivers/src/ccm_analog_imx7d.c.obj
 .comment       0x0000000000000049       0x4a CMakeFiles/rpmsg_str_echo_freertos_example.dir/home/neuberfran/projects/freertos-tn/platform/drivers/src/ccm_imx7d.c.obj
 .comment       0x0000000000000049       0x4a CMakeFiles/rpmsg_str_echo_freertos_example.dir/home/neuberfran/projects/freertos-tn/platform/utilities/src/debug_console_imx.c.obj
 .comment       0x0000000000000049       0x4a CMakeFiles/rpmsg_str_echo_freertos_example.dir/home/neuberfran/projects/freertos-tn/platform/utilities/src/print_scan.c.obj
 .comment       0x0000000000000049       0x4a CMakeFiles/rpmsg_str_echo_freertos_example.dir/home/neuberfran/projects/freertos-tn/platform/devices/MCIMX7D/startup/system_MCIMX7D_M4.c.obj
 .comment       0x0000000000000049       0x4a CMakeFiles/rpmsg_str_echo_freertos_example.dir/home/neuberfran/projects/freertos-tn/examples/imx7d_pico_m4/pin_mux.c.obj
 .comment       0x0000000000000049       0x4a CMakeFiles/rpmsg_str_echo_freertos_example.dir/home/neuberfran/projects/freertos-tn/examples/imx7d_pico_m4/board.c.obj
 .comment       0x0000000000000049       0x4a CMakeFiles/rpmsg_str_echo_freertos_example.dir/home/neuberfran/projects/freertos-tn/examples/imx7d_pico_m4/clock_freq.c.obj
 .comment       0x0000000000000049       0x4a CMakeFiles/rpmsg_str_echo_freertos_example.dir/home/neuberfran/projects/freertos-tn/examples/imx7d_pico_m4/demo_apps/rpmsg/str_echo_freertos/hardware_init.c.obj
 .comment       0x0000000000000049       0x4a CMakeFiles/rpmsg_str_echo_freertos_example.dir/home/neuberfran/projects/freertos-tn/platform/drivers/src/uart_imx.c.obj
 .comment       0x0000000000000049       0x4a CMakeFiles/rpmsg_str_echo_freertos_example.dir/home/neuberfran/projects/freertos-tn/platform/drivers/src/mu_imx.c.obj

.debug_frame    0x0000000000000000     0x3de0
 .debug_frame   0x0000000000000000      0x1ac CMakeFiles/rpmsg_str_echo_freertos_example.dir/home/neuberfran/projects/freertos-tn/rtos/FreeRTOS/Source/portable/GCC/ARM_CM4F/port.c.obj
 .debug_frame   0x00000000000001ac       0xc0 CMakeFiles/rpmsg_str_echo_freertos_example.dir/home/neuberfran/projects/freertos-tn/rtos/FreeRTOS/Source/portable/MemMang/heap_2.c.obj
 .debug_frame   0x000000000000026c       0xe4 CMakeFiles/rpmsg_str_echo_freertos_example.dir/home/neuberfran/projects/freertos-tn/examples/imx7d_pico_m4/demo_apps/rpmsg/str_echo_freertos/str_echo_freertos.c.obj
 .debug_frame   0x0000000000000350      0x1e8 CMakeFiles/rpmsg_str_echo_freertos_example.dir/home/neuberfran/projects/freertos-tn/middleware/multicore/open-amp/rpmsg/rpmsg_rtos.c.obj
 .debug_frame   0x0000000000000538      0x314 CMakeFiles/rpmsg_str_echo_freertos_example.dir/home/neuberfran/projects/freertos-tn/middleware/multicore/open-amp/porting/imx7d_m4/platform.c.obj
 .debug_frame   0x000000000000084c       0x5c CMakeFiles/rpmsg_str_echo_freertos_example.dir/home/neuberfran/projects/freertos-tn/middleware/multicore/open-amp/porting/imx7d_m4/platform_info.c.obj
 .debug_frame   0x00000000000008a8      0x26c CMakeFiles/rpmsg_str_echo_freertos_example.dir/home/neuberfran/projects/freertos-tn/middleware/multicore/open-amp/common/hil/hil.c.obj
 .debug_frame   0x0000000000000b14       0x60 CMakeFiles/rpmsg_str_echo_freertos_example.dir/home/neuberfran/projects/freertos-tn/middleware/multicore/open-amp/common/llist/llist.c.obj
 .debug_frame   0x0000000000000b74       0xc8 CMakeFiles/rpmsg_str_echo_freertos_example.dir/home/neuberfran/projects/freertos-tn/middleware/multicore/open-amp/common/shm/sh_mem.c.obj
 .debug_frame   0x0000000000000c3c      0x29c CMakeFiles/rpmsg_str_echo_freertos_example.dir/home/neuberfran/projects/freertos-tn/middleware/multicore/open-amp/rpmsg/remote_device.c.obj
 .debug_frame   0x0000000000000ed8      0x130 CMakeFiles/rpmsg_str_echo_freertos_example.dir/home/neuberfran/projects/freertos-tn/middleware/multicore/open-amp/rpmsg/rpmsg.c.obj
 .debug_frame   0x0000000000001008       0xa4 CMakeFiles/rpmsg_str_echo_freertos_example.dir/home/neuberfran/projects/freertos-tn/middleware/multicore/open-amp/rpmsg/rpmsg_ext.c.obj
 .debug_frame   0x00000000000010ac      0x2d0 CMakeFiles/rpmsg_str_echo_freertos_example.dir/home/neuberfran/projects/freertos-tn/middleware/multicore/open-amp/rpmsg/rpmsg_core.c.obj
 .debug_frame   0x000000000000137c      0x39c CMakeFiles/rpmsg_str_echo_freertos_example.dir/home/neuberfran/projects/freertos-tn/middleware/multicore/open-amp/virtio/virtqueue.c.obj
 .debug_frame   0x0000000000001718      0x528 CMakeFiles/rpmsg_str_echo_freertos_example.dir/home/neuberfran/projects/freertos-tn/middleware/multicore/open-amp/porting/env/freertos/rpmsg_porting.c.obj
 .debug_frame   0x0000000000001c40       0xd8 CMakeFiles/rpmsg_str_echo_freertos_example.dir/home/neuberfran/projects/freertos-tn/rtos/FreeRTOS/Source/list.c.obj
 .debug_frame   0x0000000000001d18      0x30c CMakeFiles/rpmsg_str_echo_freertos_example.dir/home/neuberfran/projects/freertos-tn/rtos/FreeRTOS/Source/queue.c.obj
 .debug_frame   0x0000000000002024      0x438 CMakeFiles/rpmsg_str_echo_freertos_example.dir/home/neuberfran/projects/freertos-tn/rtos/FreeRTOS/Source/tasks.c.obj
 .debug_frame   0x000000000000245c      0x15c CMakeFiles/rpmsg_str_echo_freertos_example.dir/home/neuberfran/projects/freertos-tn/platform/drivers/src/ccm_analog_imx7d.c.obj
 .debug_frame   0x00000000000025b8       0x7c CMakeFiles/rpmsg_str_echo_freertos_example.dir/home/neuberfran/projects/freertos-tn/platform/drivers/src/ccm_imx7d.c.obj
 .debug_frame   0x0000000000002634      0x264 CMakeFiles/rpmsg_str_echo_freertos_example.dir/home/neuberfran/projects/freertos-tn/platform/utilities/src/debug_console_imx.c.obj
 .debug_frame   0x0000000000002898      0x104 CMakeFiles/rpmsg_str_echo_freertos_example.dir/home/neuberfran/projects/freertos-tn/platform/utilities/src/print_scan.c.obj
 .debug_frame   0x000000000000299c       0x58 CMakeFiles/rpmsg_str_echo_freertos_example.dir/home/neuberfran/projects/freertos-tn/platform/devices/MCIMX7D/startup/system_MCIMX7D_M4.c.obj
 .debug_frame   0x00000000000029f4       0x88 CMakeFiles/rpmsg_str_echo_freertos_example.dir/home/neuberfran/projects/freertos-tn/examples/imx7d_pico_m4/pin_mux.c.obj
 .debug_frame   0x0000000000002a7c      0x138 CMakeFiles/rpmsg_str_echo_freertos_example.dir/home/neuberfran/projects/freertos-tn/examples/imx7d_pico_m4/board.c.obj
 .debug_frame   0x0000000000002bb4       0xec CMakeFiles/rpmsg_str_echo_freertos_example.dir/home/neuberfran/projects/freertos-tn/examples/imx7d_pico_m4/clock_freq.c.obj
 .debug_frame   0x0000000000002ca0       0x84 CMakeFiles/rpmsg_str_echo_freertos_example.dir/home/neuberfran/projects/freertos-tn/examples/imx7d_pico_m4/demo_apps/rpmsg/str_echo_freertos/hardware_init.c.obj
 .debug_frame   0x0000000000002d24      0x408 CMakeFiles/rpmsg_str_echo_freertos_example.dir/home/neuberfran/projects/freertos-tn/platform/drivers/src/uart_imx.c.obj
 .debug_frame   0x000000000000312c      0x1ac CMakeFiles/rpmsg_str_echo_freertos_example.dir/home/neuberfran/projects/freertos-tn/platform/drivers/src/mu_imx.c.obj
 .debug_frame   0x00000000000032d8       0x40 /home/neuberfran/neuber/gcc-arm-none-eabi-10.3-2021.10/bin/../lib/gcc/arm-none-eabi/10.3.1/../../../../arm-none-eabi/lib/thumb/v7e-m+fp/hard/libc_nano.a(lib_a-assert.o)
 .debug_frame   0x0000000000003318       0x28 /home/neuberfran/neuber/gcc-arm-none-eabi-10.3-2021.10/bin/../lib/gcc/arm-none-eabi/10.3.1/../../../../arm-none-eabi/lib/thumb/v7e-m+fp/hard/libc_nano.a(lib_a-exit.o)
 .debug_frame   0x0000000000003340       0x64 /home/neuberfran/neuber/gcc-arm-none-eabi-10.3-2021.10/bin/../lib/gcc/arm-none-eabi/10.3.1/../../../../arm-none-eabi/lib/thumb/v7e-m+fp/hard/libc_nano.a(lib_a-fprintf.o)
 .debug_frame   0x00000000000033a4       0x2c /home/neuberfran/neuber/gcc-arm-none-eabi-10.3-2021.10/bin/../lib/gcc/arm-none-eabi/10.3.1/../../../../arm-none-eabi/lib/thumb/v7e-m+fp/hard/libc_nano.a(lib_a-init.o)
 .debug_frame   0x00000000000033d0       0x28 /home/neuberfran/neuber/gcc-arm-none-eabi-10.3-2021.10/bin/../lib/gcc/arm-none-eabi/10.3.1/../../../../arm-none-eabi/lib/thumb/v7e-m+fp/hard/libc_nano.a(lib_a-memcpy-stub.o)
 .debug_frame   0x00000000000033f8       0x20 /home/neuberfran/neuber/gcc-arm-none-eabi-10.3-2021.10/bin/../lib/gcc/arm-none-eabi/10.3.1/../../../../arm-none-eabi/lib/thumb/v7e-m+fp/hard/libc_nano.a(lib_a-memset.o)
 .debug_frame   0x0000000000003418       0xac /home/neuberfran/neuber/gcc-arm-none-eabi-10.3-2021.10/bin/../lib/gcc/arm-none-eabi/10.3.1/../../../../arm-none-eabi/lib/thumb/v7e-m+fp/hard/libc_nano.a(lib_a-nano-vfprintf.o)
 .debug_frame   0x00000000000034c4       0x60 /home/neuberfran/neuber/gcc-arm-none-eabi-10.3-2021.10/bin/../lib/gcc/arm-none-eabi/10.3.1/../../../../arm-none-eabi/lib/thumb/v7e-m+fp/hard/libc_nano.a(lib_a-nano-vfprintf_i.o)
 .debug_frame   0x0000000000003524       0x28 /home/neuberfran/neuber/gcc-arm-none-eabi-10.3-2021.10/bin/../lib/gcc/arm-none-eabi/10.3.1/../../../../arm-none-eabi/lib/thumb/v7e-m+fp/hard/libc_nano.a(lib_a-strncmp.o)
 .debug_frame   0x000000000000354c       0x28 /home/neuberfran/neuber/gcc-arm-none-eabi-10.3-2021.10/bin/../lib/gcc/arm-none-eabi/10.3.1/../../../../arm-none-eabi/lib/thumb/v7e-m+fp/hard/libc_nano.a(lib_a-strncpy.o)
 .debug_frame   0x0000000000003574       0x40 /home/neuberfran/neuber/gcc-arm-none-eabi-10.3-2021.10/bin/../lib/gcc/arm-none-eabi/10.3.1/../../../../arm-none-eabi/lib/thumb/v7e-m+fp/hard/libc_nano.a(lib_a-wbuf.o)
 .debug_frame   0x00000000000035b4       0x2c /home/neuberfran/neuber/gcc-arm-none-eabi-10.3-2021.10/bin/../lib/gcc/arm-none-eabi/10.3.1/../../../../arm-none-eabi/lib/thumb/v7e-m+fp/hard/libc_nano.a(lib_a-wsetup.o)
 .debug_frame   0x00000000000035e0       0x28 /home/neuberfran/neuber/gcc-arm-none-eabi-10.3-2021.10/bin/../lib/gcc/arm-none-eabi/10.3.1/../../../../arm-none-eabi/lib/thumb/v7e-m+fp/hard/libc_nano.a(lib_a-abort.o)
 .debug_frame   0x0000000000003608       0x5c /home/neuberfran/neuber/gcc-arm-none-eabi-10.3-2021.10/bin/../lib/gcc/arm-none-eabi/10.3.1/../../../../arm-none-eabi/lib/thumb/v7e-m+fp/hard/libc_nano.a(lib_a-fflush.o)
 .debug_frame   0x0000000000003664      0x14c /home/neuberfran/neuber/gcc-arm-none-eabi-10.3-2021.10/bin/../lib/gcc/arm-none-eabi/10.3.1/../../../../arm-none-eabi/lib/thumb/v7e-m+fp/hard/libc_nano.a(lib_a-findfp.o)
 .debug_frame   0x00000000000037b0       0x54 /home/neuberfran/neuber/gcc-arm-none-eabi-10.3-2021.10/bin/../lib/gcc/arm-none-eabi/10.3.1/../../../../arm-none-eabi/lib/thumb/v7e-m+fp/hard/libc_nano.a(lib_a-fwalk.o)
 .debug_frame   0x0000000000003804       0xb0 /home/neuberfran/neuber/gcc-arm-none-eabi-10.3-2021.10/bin/../lib/gcc/arm-none-eabi/10.3.1/../../../../arm-none-eabi/lib/thumb/v7e-m+fp/hard/libc_nano.a(lib_a-lock.o)
 .debug_frame   0x00000000000038b4       0x58 /home/neuberfran/neuber/gcc-arm-none-eabi-10.3-2021.10/bin/../lib/gcc/arm-none-eabi/10.3.1/../../../../arm-none-eabi/lib/thumb/v7e-m+fp/hard/libc_nano.a(lib_a-makebuf.o)
 .debug_frame   0x000000000000390c       0x38 /home/neuberfran/neuber/gcc-arm-none-eabi-10.3-2021.10/bin/../lib/gcc/arm-none-eabi/10.3.1/../../../../arm-none-eabi/lib/thumb/v7e-m+fp/hard/libc_nano.a(lib_a-nano-freer.o)
 .debug_frame   0x0000000000003944       0x4c /home/neuberfran/neuber/gcc-arm-none-eabi-10.3-2021.10/bin/../lib/gcc/arm-none-eabi/10.3.1/../../../../arm-none-eabi/lib/thumb/v7e-m+fp/hard/libc_nano.a(lib_a-nano-mallocr.o)
 .debug_frame   0x0000000000003990       0x2c /home/neuberfran/neuber/gcc-arm-none-eabi-10.3-2021.10/bin/../lib/gcc/arm-none-eabi/10.3.1/../../../../arm-none-eabi/lib/thumb/v7e-m+fp/hard/libc_nano.a(lib_a-sbrkr.o)
 .debug_frame   0x00000000000039bc       0xcc /home/neuberfran/neuber/gcc-arm-none-eabi-10.3-2021.10/bin/../lib/gcc/arm-none-eabi/10.3.1/../../../../arm-none-eabi/lib/thumb/v7e-m+fp/hard/libc_nano.a(lib_a-signal.o)
 .debug_frame   0x0000000000003a88       0x3c /home/neuberfran/neuber/gcc-arm-none-eabi-10.3-2021.10/bin/../lib/gcc/arm-none-eabi/10.3.1/../../../../arm-none-eabi/lib/thumb/v7e-m+fp/hard/libc_nano.a(lib_a-signalr.o)
 .debug_frame   0x0000000000003ac4       0x88 /home/neuberfran/neuber/gcc-arm-none-eabi-10.3-2021.10/bin/../lib/gcc/arm-none-eabi/10.3.1/../../../../arm-none-eabi/lib/thumb/v7e-m+fp/hard/libc_nano.a(lib_a-stdio.o)
 .debug_frame   0x0000000000003b4c       0x2c /home/neuberfran/neuber/gcc-arm-none-eabi-10.3-2021.10/bin/../lib/gcc/arm-none-eabi/10.3.1/../../../../arm-none-eabi/lib/thumb/v7e-m+fp/hard/libc_nano.a(lib_a-writer.o)
 .debug_frame   0x0000000000003b78       0x2c /home/neuberfran/neuber/gcc-arm-none-eabi-10.3-2021.10/bin/../lib/gcc/arm-none-eabi/10.3.1/../../../../arm-none-eabi/lib/thumb/v7e-m+fp/hard/libc_nano.a(lib_a-closer.o)
 .debug_frame   0x0000000000003ba4       0x2c /home/neuberfran/neuber/gcc-arm-none-eabi-10.3-2021.10/bin/../lib/gcc/arm-none-eabi/10.3.1/../../../../arm-none-eabi/lib/thumb/v7e-m+fp/hard/libc_nano.a(lib_a-fstatr.o)
 .debug_frame   0x0000000000003bd0       0x2c /home/neuberfran/neuber/gcc-arm-none-eabi-10.3-2021.10/bin/../lib/gcc/arm-none-eabi/10.3.1/../../../../arm-none-eabi/lib/thumb/v7e-m+fp/hard/libc_nano.a(lib_a-isattyr.o)
 .debug_frame   0x0000000000003bfc       0x2c /home/neuberfran/neuber/gcc-arm-none-eabi-10.3-2021.10/bin/../lib/gcc/arm-none-eabi/10.3.1/../../../../arm-none-eabi/lib/thumb/v7e-m+fp/hard/libc_nano.a(lib_a-lseekr.o)
 .debug_frame   0x0000000000003c28       0x30 /home/neuberfran/neuber/gcc-arm-none-eabi-10.3-2021.10/bin/../lib/gcc/arm-none-eabi/10.3.1/../../../../arm-none-eabi/lib/thumb/v7e-m+fp/hard/libc_nano.a(lib_a-mlock.o)
 .debug_frame   0x0000000000003c58       0x2c /home/neuberfran/neuber/gcc-arm-none-eabi-10.3-2021.10/bin/../lib/gcc/arm-none-eabi/10.3.1/../../../../arm-none-eabi/lib/thumb/v7e-m+fp/hard/libc_nano.a(lib_a-readr.o)
 .debug_frame   0x0000000000003c84       0x5c /home/neuberfran/neuber/gcc-arm-none-eabi-10.3-2021.10/bin/../lib/gcc/arm-none-eabi/10.3.1/../../../../arm-none-eabi/lib/thumb/v7e-m+fp/hard/libc_nano.a(lib_a-reent.o)
 .debug_frame   0x0000000000003ce0       0x20 /home/neuberfran/neuber/gcc-arm-none-eabi-10.3-2021.10/bin/../lib/gcc/arm-none-eabi/10.3.1/../../../../arm-none-eabi/lib/thumb/v7e-m+fp/hard/libnosys.a(close.o)
 .debug_frame   0x0000000000003d00       0x20 /home/neuberfran/neuber/gcc-arm-none-eabi-10.3-2021.10/bin/../lib/gcc/arm-none-eabi/10.3.1/../../../../arm-none-eabi/lib/thumb/v7e-m+fp/hard/libnosys.a(fstat.o)
 .debug_frame   0x0000000000003d20       0x20 /home/neuberfran/neuber/gcc-arm-none-eabi-10.3-2021.10/bin/../lib/gcc/arm-none-eabi/10.3.1/../../../../arm-none-eabi/lib/thumb/v7e-m+fp/hard/libnosys.a(getpid.o)
 .debug_frame   0x0000000000003d40       0x20 /home/neuberfran/neuber/gcc-arm-none-eabi-10.3-2021.10/bin/../lib/gcc/arm-none-eabi/10.3.1/../../../../arm-none-eabi/lib/thumb/v7e-m+fp/hard/libnosys.a(isatty.o)
 .debug_frame   0x0000000000003d60       0x20 /home/neuberfran/neuber/gcc-arm-none-eabi-10.3-2021.10/bin/../lib/gcc/arm-none-eabi/10.3.1/../../../../arm-none-eabi/lib/thumb/v7e-m+fp/hard/libnosys.a(kill.o)
 .debug_frame   0x0000000000003d80       0x20 /home/neuberfran/neuber/gcc-arm-none-eabi-10.3-2021.10/bin/../lib/gcc/arm-none-eabi/10.3.1/../../../../arm-none-eabi/lib/thumb/v7e-m+fp/hard/libnosys.a(lseek.o)
 .debug_frame   0x0000000000003da0       0x20 /home/neuberfran/neuber/gcc-arm-none-eabi-10.3-2021.10/bin/../lib/gcc/arm-none-eabi/10.3.1/../../../../arm-none-eabi/lib/thumb/v7e-m+fp/hard/libnosys.a(sbrk.o)
 .debug_frame   0x0000000000003dc0       0x20 /home/neuberfran/neuber/gcc-arm-none-eabi-10.3-2021.10/bin/../lib/gcc/arm-none-eabi/10.3.1/../../../../arm-none-eabi/lib/thumb/v7e-m+fp/hard/libnosys.a(_exit.o)

.stab           0x0000000000000000       0x9c
 .stab          0x0000000000000000       0x24 /home/neuberfran/neuber/gcc-arm-none-eabi-10.3-2021.10/bin/../lib/gcc/arm-none-eabi/10.3.1/../../../../arm-none-eabi/lib/thumb/v7e-m+fp/hard/libnosys.a(close.o)
 .stab          0x0000000000000024       0x18 /home/neuberfran/neuber/gcc-arm-none-eabi-10.3-2021.10/bin/../lib/gcc/arm-none-eabi/10.3.1/../../../../arm-none-eabi/lib/thumb/v7e-m+fp/hard/libnosys.a(fstat.o)
                                         0x24 (size before relaxing)
 .stab          0x000000000000003c       0x18 /home/neuberfran/neuber/gcc-arm-none-eabi-10.3-2021.10/bin/../lib/gcc/arm-none-eabi/10.3.1/../../../../arm-none-eabi/lib/thumb/v7e-m+fp/hard/libnosys.a(getpid.o)
                                         0x24 (size before relaxing)
 .stab          0x0000000000000054       0x18 /home/neuberfran/neuber/gcc-arm-none-eabi-10.3-2021.10/bin/../lib/gcc/arm-none-eabi/10.3.1/../../../../arm-none-eabi/lib/thumb/v7e-m+fp/hard/libnosys.a(isatty.o)
                                         0x24 (size before relaxing)
 .stab          0x000000000000006c       0x18 /home/neuberfran/neuber/gcc-arm-none-eabi-10.3-2021.10/bin/../lib/gcc/arm-none-eabi/10.3.1/../../../../arm-none-eabi/lib/thumb/v7e-m+fp/hard/libnosys.a(kill.o)
                                         0x24 (size before relaxing)
 .stab          0x0000000000000084       0x18 /home/neuberfran/neuber/gcc-arm-none-eabi-10.3-2021.10/bin/../lib/gcc/arm-none-eabi/10.3.1/../../../../arm-none-eabi/lib/thumb/v7e-m+fp/hard/libnosys.a(lseek.o)
                                         0x24 (size before relaxing)

.stabstr        0x0000000000000000      0x14f
 .stabstr       0x0000000000000000      0x14f /home/neuberfran/neuber/gcc-arm-none-eabi-10.3-2021.10/bin/../lib/gcc/arm-none-eabi/10.3.1/../../../../arm-none-eabi/lib/thumb/v7e-m+fp/hard/libnosys.a(close.o)
